(lp0
((I0
I1
I2
I3
I4
I5
I6
tp1
I6
tp2
a((I0
I1
I2
I3
I4
I5
I6
I7
tp3
I2
tp4
a((I0
I1
I2
I3
I4
I5
I6
I7
tp5
I2
tp6
a((I0
I1
I2
I3
I4
I5
I6
I7
tp7
I0
tp8
a((I0
I1
I2
I3
I4
I5
I7
tp9
I6
tp10
a((I0
I1
I2
I3
I4
I7
tp11
I1
tp12
a((I0
I1
I2
I3
I4
I5
I6
I7
tp13
I0
tp14
a((I0
I1
I2
I3
I4
I5
I6
tp15
I6
tp16
a((I0
I1
I2
I3
I4
I5
I6
I7
tp17
I7
tp18
a((I0
I1
I2
I3
I4
I5
tp19
I0
tp20
a((I0
I1
I2
I3
I4
I7
tp21
I5
tp22
a((I0
I1
I2
I3
I4
I5
I7
tp23
I6
tp24
a((I0
I1
I2
I3
I4
I5
I6
I7
tp25
I1
tp26
a((I0
I1
I2
I3
I4
I7
tp27
I1
tp28
a((I0
I1
I2
I3
I4
I5
I6
I7
tp29
I2
tp30
a((I0
I1
I2
I3
I4
I5
I6
I7
tp31
I2
tp32
a((I0
I1
I2
I3
I4
I7
tp33
I5
tp34
a((I0
I1
I2
I3
I4
I5
I6
I7
tp35
I7
tp36
a((I0
I1
I2
I3
I4
I5
I7
tp37
I1
tp38
a((I0
I1
I2
I3
I4
I7
tp39
I1
tp40
a((I0
I1
I2
I3
I4
I7
tp41
I1
tp42
a((I0
I1
I2
I3
I4
tp43
I0
tp44
a((I0
I1
I2
I3
I4
I5
I6
I7
tp45
I7
tp46
a((I0
I1
I2
I3
I4
I7
tp47
I5
tp48
a((I0
I1
I2
I3
I4
I7
tp49
I5
tp50
a((I0
I1
I2
I3
I4
I5
I6
I7
tp51
I1
tp52
a((I0
I1
I2
I3
I4
I5
I6
I7
tp53
I1
tp54
a((I0
I1
I2
I3
I4
I7
tp55
I1
tp56
a((I0
I1
I2
I3
I4
I7
tp57
I1
tp58
a((I0
I1
I2
I3
I4
I5
I7
tp59
I2
tp60
a((I0
I1
I2
I3
I4
I7
tp61
I2
tp62
a((I0
I1
I2
I3
I4
I5
I6
I7
tp63
I6
tp64
a((I0
I1
I2
I3
I4
I5
I6
I7
tp65
I6
tp66
a((I0
I1
I2
I3
I4
I5
I6
tp67
I6
tp68
a((I0
I1
I2
I3
I4
I5
I6
tp69
I6
tp70
a((I0
I1
I2
I3
I4
I5
I6
I7
tp71
I7
tp72
a((I0
I1
I2
I3
I4
I5
I6
I7
tp73
I7
tp74
a((I0
I1
I2
I3
I4
I5
I6
I7
tp75
I2
tp76
a((I0
I1
I2
I3
I4
I5
I7
tp77
I0
tp78
a((I0
I1
I2
I3
I4
I5
I6
I7
tp79
I6
tp80
a((I0
I1
I2
I3
I4
I5
I6
I7
tp81
I6
tp82
a((I0
I1
I2
I3
I4
I5
I6
I7
tp83
I1
tp84
a((I0
I1
I2
I3
I4
I5
I6
I7
tp85
I1
tp86
a((I0
I1
I2
I3
I4
I5
I6
tp87
I6
tp88
a((I0
I1
I2
I3
I4
I5
I6
tp89
I6
tp90
a((I0
I1
I2
I3
I4
I7
tp91
I1
tp92
a((I0
I1
I2
I3
I4
I5
I7
tp93
I0
tp94
a((I0
I1
I2
I3
I4
I5
I7
tp95
I1
tp96
a((I0
I1
I2
I3
I4
I5
I7
tp97
I5
tp98
a((I0
I1
I2
I3
I4
I5
I6
I7
tp99
I7
tp100
a((I0
I1
I2
I3
I4
I5
I6
I7
tp101
I6
tp102
a((I0
I1
I2
I3
I4
I5
I6
tp103
I6
tp104
a((I0
I1
I2
I3
I4
I7
tp105
I5
tp106
a((I0
I1
I2
I3
I4
I5
I6
I7
tp107
I1
tp108
a((I0
I1
I2
I3
I4
I5
I6
I7
tp109
I0
tp110
a((I0
I1
I2
I3
I4
I5
I6
I7
tp111
I7
tp112
a((I0
I1
I2
I3
I4
I5
I6
tp113
I6
tp114
a((I0
I1
I2
I3
I4
I5
I6
I7
tp115
I6
tp116
a((I0
I1
I2
I3
I4
I5
I6
I7
tp117
I7
tp118
a((I0
I1
I2
I3
I4
I5
I6
I7
tp119
I2
tp120
a((I0
I1
I2
I3
I4
I5
I6
I7
tp121
I2
tp122
a((I0
I1
I2
I3
I4
I5
I6
tp123
I0
tp124
a((I0
I1
I2
I3
I4
I5
I6
tp125
I1
tp126
a((I0
I1
I2
I3
I4
I5
I6
I7
tp127
I7
tp128
a((I0
I1
I2
I3
I4
I5
I6
I7
tp129
I1
tp130
a((I0
I1
I2
I3
I4
I5
I6
I7
tp131
I1
tp132
a((I0
I1
I2
I3
I4
I5
I6
I7
tp133
I7
tp134
a((I0
I1
I2
I3
I4
I5
I6
tp135
I1
tp136
a((I0
I1
I2
I3
I4
I5
I6
tp137
I6
tp138
a((I0
I1
I2
I3
I4
I5
I6
I7
tp139
I1
tp140
a((I0
I1
I2
I3
I4
I5
I6
tp141
I6
tp142
a((I0
I1
I2
I3
I4
I5
I6
tp143
I6
tp144
a((I0
I1
I2
I3
I4
I5
I6
I7
tp145
I1
tp146
a((I0
I1
I2
I3
I4
I5
I6
I7
tp147
I7
tp148
a((I0
I1
I2
I3
I4
I5
I6
I7
tp149
I6
tp150
a((I0
I1
I2
I3
I4
I5
I6
I7
tp151
I1
tp152
a((I0
I1
I2
I3
I4
I5
I6
I7
tp153
I1
tp154
a((I0
I1
I2
I3
I4
I7
tp155
I5
tp156
a((I0
I1
I2
I3
I4
I5
I6
I7
tp157
I7
tp158
a((I0
I1
I2
I3
I4
I5
I6
I7
tp159
I7
tp160
a((I0
I1
I2
I3
I4
I7
tp161
I1
tp162
a((I0
I1
I2
I3
I4
I5
I6
I7
tp163
I2
tp164
a((I0
I1
I2
I3
I4
I7
tp165
I0
tp166
a((I0
I1
I2
I3
I4
I5
I7
tp167
I6
tp168
a((I0
I1
I2
I3
I4
I5
I6
I7
tp169
I1
tp170
a((I0
I1
I2
I3
I4
I5
I6
I7
tp171
I6
tp172
a((I0
I1
I2
I3
I4
I7
tp173
I5
tp174
a((I0
I1
I2
I3
I4
I5
I6
I7
tp175
I7
tp176
a((I0
I1
I2
I3
I4
I5
I6
I7
tp177
I7
tp178
a((I0
I1
I2
I3
I4
I5
I6
I7
tp179
I7
tp180
a((I0
I1
I2
I3
I4
I5
I7
tp181
I1
tp182
a((I0
I1
I2
I3
I4
I5
I6
I7
tp183
I6
tp184
a((I0
I1
I2
I3
I4
I5
I6
tp185
I6
tp186
a((I0
I1
I2
I3
I4
I5
I6
I7
tp187
I7
tp188
a((I0
I1
I2
I3
I4
I5
I6
I7
tp189
I7
tp190
a((I0
I1
I2
I3
I4
I5
I6
I7
tp191
I1
tp192
a((I0
I1
I2
I3
I4
I5
I7
tp193
I6
tp194
a((I0
I1
I2
I3
I4
I7
tp195
I1
tp196
a((I0
I1
I2
I3
I4
I7
tp197
I1
tp198
a((I0
I1
I2
I3
I4
I5
I6
I7
tp199
I7
tp200
a((I0
I1
I2
I3
I4
I7
tp201
I5
tp202
a((I0
I1
I2
I3
I4
I7
tp203
I0
tp204
a((I0
I1
I2
I3
I4
tp205
I0
tp206
a((I0
I1
I2
I3
I4
tp207
I0
tp208
a((I0
I1
I2
I3
I4
I5
tp209
I0
tp210
a((I0
I1
I2
I3
I4
I5
I6
I7
tp211
I1
tp212
a((I0
I1
I2
I3
I4
I5
I6
I7
tp213
I2
tp214
a((I0
I1
I2
I3
I4
I5
I6
tp215
I1
tp216
a((I0
I1
I2
I3
I4
I5
I6
I7
tp217
I1
tp218
a((I0
I1
I2
I3
I4
I5
I6
I7
tp219
I1
tp220
a((I0
I1
I2
I3
I4
I5
I6
I7
tp221
I2
tp222
a((I0
I1
I2
I3
I4
I5
I6
I7
tp223
I1
tp224
a((I0
I1
I2
I3
I4
I5
I6
I7
tp225
I0
tp226
a((I0
I1
I2
I3
I4
I5
I6
tp227
I6
tp228
a((I0
I1
I2
I3
I4
I5
I6
I7
tp229
I1
tp230
a((I0
I1
I2
I3
I4
I5
I6
I7
tp231
I7
tp232
a((I0
I1
I2
I3
I4
I7
tp233
I5
tp234
a((I0
I1
I2
I3
I4
I5
I6
I7
tp235
I7
tp236
a((I0
I1
I2
I3
I4
I7
tp237
I1
tp238
a((I0
I1
I2
I3
I4
I7
tp239
I1
tp240
a((I0
I1
I2
I3
I4
I5
I6
I7
tp241
I6
tp242
a((I0
I1
I2
I3
I4
I5
I6
I7
tp243
I1
tp244
a((I0
I1
I2
I3
I4
I7
tp245
I1
tp246
a((I0
I1
I2
I3
I4
I7
tp247
I1
tp248
a((I0
I1
I2
I3
I4
I5
I6
I7
tp249
I6
tp250
a((I0
I1
I2
I3
I4
I5
I6
I7
tp251
I6
tp252
a((I0
I1
I2
I3
I4
I5
I6
I7
tp253
I6
tp254
a((I0
I1
I2
I3
I4
I5
I6
I7
tp255
I6
tp256
a((I0
I1
I2
I3
I4
I5
I6
I7
tp257
I6
tp258
a((I0
I1
I2
I3
I4
I5
I6
I7
tp259
I7
tp260
a((I0
I1
I2
I3
I4
I5
I6
I7
tp261
I7
tp262
a((I0
I1
I2
I3
I4
I5
I6
I7
tp263
I7
tp264
a((I0
I1
I2
I3
I4
I5
I6
I7
tp265
I7
tp266
a((I0
I1
I2
I3
I4
I7
tp267
I1
tp268
a((I0
I1
I2
I3
I4
I5
I6
I7
tp269
I2
tp270
a((I0
I1
I2
I3
I4
I5
I6
I7
tp271
I7
tp272
a((I0
I1
I2
I3
I4
I5
I6
I7
tp273
I7
tp274
a((I0
I1
I2
I3
I4
I5
I6
I7
tp275
I7
tp276
a((I0
I1
I2
I3
I4
I5
I6
I7
tp277
I6
tp278
a((I0
I1
I2
I3
I4
I5
I6
I7
tp279
I6
tp280
a((I0
I1
I2
I3
I4
I5
I7
tp281
I0
tp282
a((I0
I1
I2
I3
I4
I5
I6
I7
tp283
I7
tp284
a((I0
I1
I2
I3
I4
I7
tp285
I0
tp286
a((I0
I1
I2
I3
I4
I7
tp287
I5
tp288
a((I0
I1
I2
I3
I4
I5
I6
I7
tp289
I7
tp290
a((I0
I1
I2
I3
I4
I5
I6
I7
tp291
I7
tp292
a((I0
I1
I2
I3
I4
I5
I7
tp293
I6
tp294
a((I0
I1
I2
I3
I4
I5
I6
I7
tp295
I6
tp296
a((I0
I1
I2
I3
I4
I7
tp297
I5
tp298
a((I0
I1
I2
I3
I4
I7
tp299
I2
tp300
a((I0
I1
I2
I3
I4
I5
I6
I7
tp301
I7
tp302
a((I0
I1
I2
I3
I4
I7
tp303
I5
tp304
a((I0
I1
I2
I3
I4
I5
I6
I7
tp305
I7
tp306
a((I0
I1
I2
I3
I4
I5
I6
I7
tp307
I7
tp308
a((I0
I1
I2
I3
I4
I5
I6
I7
tp309
I1
tp310
a((I0
I1
I2
I3
I4
I5
I6
I7
tp311
I1
tp312
a((I0
I1
I2
I3
I4
I5
I7
tp313
I1
tp314
a((I0
I1
I2
I3
I4
I5
I6
I7
tp315
I1
tp316
a((I0
I1
I2
I3
I4
I5
I7
tp317
I6
tp318
a((I0
I1
I2
I3
I4
I5
I6
tp319
I6
tp320
a((I0
I1
I2
I3
I4
I5
I6
tp321
I6
tp322
a((I0
I1
I2
I3
I4
I5
I6
tp323
I6
tp324
a((I0
I1
I2
I3
I4
I5
I6
tp325
I6
tp326
a((I0
I1
I2
I3
I4
I5
I6
I7
tp327
I7
tp328
a((I0
I1
I2
I3
I4
I5
I6
I7
tp329
I6
tp330
a((I0
I1
I2
I3
I4
I5
I6
I7
tp331
I7
tp332
a((I0
I1
I2
I3
I4
I5
I6
I7
tp333
I6
tp334
a((I0
I1
I2
I3
I4
I5
I6
I7
tp335
I7
tp336
a((I0
I1
I2
I3
I4
I5
I6
I7
tp337
I7
tp338
a((I0
I1
I2
I3
I4
I5
I6
I7
tp339
I7
tp340
a((I0
I1
I2
I3
I4
I5
I7
tp341
I2
tp342
a((I0
I1
I2
I3
I4
I5
I6
I7
tp343
I6
tp344
a((I0
I1
I2
I3
I4
I5
I6
I7
tp345
I7
tp346
a((I0
I1
I2
I3
I4
I5
I6
I7
tp347
I1
tp348
a((I0
I1
I2
I3
I4
I5
I6
I7
tp349
I1
tp350
a((I0
I1
I2
I3
I4
I5
I6
I7
tp351
I7
tp352
a((I0
I1
I2
I3
I4
I5
I6
I7
tp353
I7
tp354
a((I0
I1
I2
I3
I4
I5
I6
I7
tp355
I6
tp356
a((I0
I1
I2
I3
I4
I5
I6
I7
tp357
I6
tp358
a((I0
I1
I2
I3
I4
I5
I6
I7
tp359
I7
tp360
a((I0
I1
I2
I3
I4
I5
I6
I7
tp361
I6
tp362
a((I0
I1
I2
I3
I4
I5
I6
tp363
I0
tp364
a((I0
I1
I2
I3
I4
I5
I6
tp365
I1
tp366
a((I0
I1
I2
I3
I4
I5
I6
tp367
I1
tp368
a((I0
I1
I2
I3
I4
I7
tp369
I5
tp370
a((I0
I1
I2
I3
I4
I5
I6
I7
tp371
I7
tp372
a((I0
I1
I2
I3
I4
I5
I6
I7
tp373
I7
tp374
a((I0
I1
I2
I3
I4
I7
tp375
I1
tp376
a((I0
I1
I2
I3
I4
I5
I6
I7
tp377
I1
tp378
a((I0
I1
I2
I3
I4
I7
tp379
I1
tp380
a((I0
I1
I2
I3
I4
I5
I6
I7
tp381
I0
tp382
a((I0
I1
I2
I3
I4
I5
I6
I7
tp383
I7
tp384
a((I0
I1
I2
I3
I4
tp385
I0
tp386
a((I0
I1
I2
I3
I4
I5
I6
tp387
I6
tp388
a((I0
I1
I2
I3
I4
I5
I6
I7
tp389
I1
tp390
a((I0
I1
I2
I3
I4
I5
I6
I7
tp391
I1
tp392
a((I0
I1
I2
I3
I4
I5
I6
tp393
I6
tp394
a((I0
I1
I2
I3
I4
I5
I6
tp395
I6
tp396
a((I0
I1
I2
I3
I4
I5
I6
tp397
I6
tp398
a((I0
I1
I2
I3
I4
I5
I6
I7
tp399
I7
tp400
a((I0
I1
I2
I3
I4
I5
I6
I7
tp401
I7
tp402
a((I0
I1
I2
I3
I4
I5
I6
I7
tp403
I7
tp404
a((I0
I1
I2
I3
I4
I5
I6
I7
tp405
I1
tp406
a((I0
I1
I2
I3
I4
I5
I6
I7
tp407
I1
tp408
a((I0
I1
I2
I3
I4
I5
I7
tp409
I2
tp410
a((I0
I1
I2
I3
I4
I5
I7
tp411
I2
tp412
a((I0
I1
I2
I3
I4
I5
I6
I7
tp413
I7
tp414
a((I0
I1
I2
I3
I4
I5
I6
I7
tp415
I6
tp416
a((I0
I1
I2
I3
I4
I5
I6
I7
tp417
I7
tp418
a((I0
I1
I2
I3
I4
I5
I6
I7
tp419
I7
tp420
a((I0
I1
I2
I3
I4
I5
I7
tp421
I6
tp422
a((I0
I1
I2
I3
I4
I5
I6
I7
tp423
I7
tp424
a((I0
I1
I2
I3
I4
I5
I6
I7
tp425
I7
tp426
a((I0
I1
I2
I3
I4
I5
I6
I7
tp427
I7
tp428
a((I0
I1
I2
I3
I4
I5
I6
I7
tp429
I6
tp430
a((I0
I1
I2
I3
I4
I5
I6
I7
tp431
I7
tp432
a((I0
I1
I2
I3
I4
I5
I6
I7
tp433
I7
tp434
a((I0
I1
I2
I3
I4
I5
I6
tp435
I0
tp436
a((I0
I1
I2
I3
I4
I5
I6
tp437
I6
tp438
a((I0
I1
I2
I3
I4
I5
I6
tp439
I6
tp440
a((I0
I1
I2
I3
I4
I5
I6
I7
tp441
I6
tp442
a((I0
I1
I2
I3
I4
I5
I6
tp443
I6
tp444
a((I0
I1
I2
I3
I4
I7
tp445
I1
tp446
a((I0
I1
I2
I3
I4
I5
I6
I7
tp447
I6
tp448
a((I0
I1
I2
I3
I4
I5
I6
I7
tp449
I6
tp450
a((I0
I1
I2
I3
I4
I5
I6
I7
tp451
I7
tp452
a((I0
I1
I2
I3
I4
I5
I6
tp453
I6
tp454
a((I0
I1
I2
I3
I4
I5
I6
I7
tp455
I0
tp456
a((I1
I2
I3
I4
I7
tp457
I4
tp458
a((I0
I1
I2
I3
I4
I5
I6
tp459
I0
tp460
a((I0
I1
I2
I3
I4
I5
I6
tp461
I6
tp462
a((I0
I1
I2
I3
I4
I5
I6
I7
tp463
I0
tp464
a((I0
I1
I2
I3
I4
I5
I6
I7
tp465
I6
tp466
a((I0
I1
I2
I3
I4
I5
I6
I7
tp467
I7
tp468
a((I0
I1
I2
I3
I4
I5
I6
I7
tp469
I7
tp470
a((I0
I1
I2
I3
I4
I5
I6
I7
tp471
I1
tp472
a((I0
I1
I2
I3
I4
I5
I6
I7
tp473
I6
tp474
a((I0
I1
I2
I3
I4
I7
tp475
I1
tp476
a((I0
I1
I2
I3
I4
I7
tp477
I1
tp478
a((I0
I1
I2
I3
I4
I7
tp479
I1
tp480
a((I0
I1
I2
I3
I4
I7
tp481
I1
tp482
a((I0
I1
I2
I3
I4
I5
I6
I7
tp483
I7
tp484
a((I0
I1
I2
I3
I4
I5
I6
I7
tp485
I7
tp486
a((I0
I1
I2
I3
I4
I7
tp487
I5
tp488
a((I0
I1
I2
I3
I4
I7
tp489
I5
tp490
a((I0
I1
I2
I3
I4
I5
I6
I7
tp491
I7
tp492
a((I0
I1
I2
I3
I4
I5
I6
I7
tp493
I6
tp494
a((I0
I1
I2
I3
I4
I5
I6
I7
tp495
I7
tp496
a((I0
I1
I2
I3
I4
I7
tp497
I5
tp498
a((I0
I1
I2
I3
I4
I7
tp499
I5
tp500
a((I0
I1
I2
I3
I4
I5
I6
I7
tp501
I7
tp502
a((I0
I1
I2
I3
I4
I7
tp503
I5
tp504
a((I0
I1
I2
I3
I4
I7
tp505
I1
tp506
a((I0
I1
I2
I3
I4
I7
tp507
I1
tp508
a((I0
I1
I2
I3
I4
I5
I6
I7
tp509
I5
tp510
a((I0
I1
I2
I3
I4
I7
tp511
I1
tp512
a((I0
I1
I2
I3
I4
I5
I6
I7
tp513
I7
tp514
a((I0
I1
I2
I3
I4
I5
I6
I7
tp515
I7
tp516
a((I0
I1
I2
I3
I4
I5
I6
I7
tp517
I1
tp518
a((I0
I1
I2
I3
I4
I5
I6
I7
tp519
I6
tp520
a((I0
I1
I2
I3
I4
I5
I6
tp521
I6
tp522
a((I0
I1
I2
I3
I4
I7
tp523
I2
tp524
a((I0
I1
I2
I3
I4
I7
tp525
I2
tp526
a((I0
I1
I2
I3
I4
I5
I6
I7
tp527
I7
tp528
a((I0
I1
I2
I3
I4
I5
I6
I7
tp529
I2
tp530
a((I0
I1
I2
I3
I4
I7
tp531
I1
tp532
a((I0
I1
I2
I3
I4
I5
I6
I7
tp533
I2
tp534
a((I0
I1
I2
I3
I4
I7
tp535
I1
tp536
a((I0
I1
I2
I3
I4
I5
I6
I7
tp537
I6
tp538
a((I0
I1
I2
I3
I4
I5
I6
I7
tp539
I2
tp540
a((I0
I1
I2
I3
I4
I5
I6
I7
tp541
I2
tp542
a((I0
I1
I2
I3
I4
I7
tp543
I5
tp544
a((I0
I1
I2
I3
I4
I5
I6
I7
tp545
I7
tp546
a((I0
I1
I2
I3
I4
I7
tp547
I5
tp548
a((I0
I1
I2
I3
I4
I5
I6
I7
tp549
I7
tp550
a((I0
I1
I2
I3
I4
I7
tp551
I1
tp552
a((I0
I1
I2
I3
I4
I7
tp553
I1
tp554
a((I0
I1
I2
I3
I4
I7
tp555
I5
tp556
a((I0
I1
I2
I3
I4
I5
I6
I7
tp557
I7
tp558
a((I0
I1
I2
I3
I4
I5
I7
tp559
I6
tp560
a((I0
I1
I2
I3
I4
I5
I7
tp561
I1
tp562
a((I0
I1
I2
I3
I4
I5
I6
I7
tp563
I7
tp564
a((I0
I1
I2
I3
I4
I7
tp565
I1
tp566
a((I0
I1
I2
I3
I4
I7
tp567
I1
tp568
a((I0
I1
I2
I3
I4
I7
tp569
I1
tp570
a((I0
I1
I2
I3
I4
I5
I6
I7
tp571
I7
tp572
a((I0
I1
I2
I3
I4
I5
I6
I7
tp573
I7
tp574
a((I0
I1
I2
I3
I4
I7
tp575
I5
tp576
a((I0
I1
I2
I3
I4
I7
tp577
I1
tp578
a((I0
I1
I2
I3
I4
I5
I7
tp579
I6
tp580
a((I0
I1
I2
I3
I4
I5
I6
I7
tp581
I7
tp582
a((I0
I1
I2
I3
I4
I7
tp583
I5
tp584
a((I0
I1
I2
I3
I4
I7
tp585
I5
tp586
a((I0
I1
I2
I3
I4
I5
I6
I7
tp587
I7
tp588
a((I0
I1
I2
I3
I4
I5
I6
I7
tp589
I6
tp590
a((I0
I1
I2
I3
I4
I5
I6
tp591
I6
tp592
a((I0
I1
I2
I3
I4
I5
I6
I7
tp593
I5
tp594
a((I0
I1
I2
I3
I4
I5
I6
I7
tp595
I7
tp596
a((I0
I1
I2
I3
I4
I7
tp597
I5
tp598
a((I0
I1
I2
I3
I4
I5
I6
I7
tp599
I1
tp600
a((I0
I1
I2
I3
I4
I7
tp601
I5
tp602
a((I0
I1
I2
I3
I4
I5
I6
I7
tp603
I7
tp604
a((I0
I1
I2
I3
I4
I5
I6
I7
tp605
I6
tp606
a((I0
I1
I2
I3
I4
I7
tp607
I5
tp608
a((I0
I1
I2
I3
I4
I7
tp609
I5
tp610
a((I0
I1
I2
I3
I4
I7
tp611
I1
tp612
a((I0
I1
I2
I3
I4
I7
tp613
I1
tp614
a((I0
I1
I2
I3
I4
I5
I6
I7
tp615
I7
tp616
a((I0
I1
I2
I3
I4
I5
I6
I7
tp617
I1
tp618
a((I0
I1
I2
I3
I4
I5
I6
I7
tp619
I6
tp620
a((I0
I1
I2
I3
I4
I5
I7
tp621
I6
tp622
a((I0
I1
I2
I3
I4
I5
I6
I7
tp623
I6
tp624
a((I0
I1
I2
I3
I4
I7
tp625
I1
tp626
a((I0
I1
I2
I3
I4
I7
tp627
I1
tp628
a((I0
I1
I2
I3
I4
I5
I6
I7
tp629
I7
tp630
a((I0
I1
I2
I3
I4
I5
I6
I7
tp631
I6
tp632
a((I0
I1
I2
I3
I4
I5
I6
I7
tp633
I6
tp634
a((I0
I1
I2
I3
I4
I7
tp635
I5
tp636
a((I0
I1
I2
I3
I4
I5
I6
I7
tp637
I7
tp638
a((I0
I1
I2
I3
I4
I5
I6
I7
tp639
I7
tp640
a((I0
I1
I2
I3
I4
I5
I6
I7
tp641
I6
tp642
a((I0
I1
I2
I3
I4
I5
I7
tp643
I6
tp644
a((I0
I1
I2
I3
I4
I7
tp645
I5
tp646
a((I0
I1
I2
I3
I4
I7
tp647
I1
tp648
a((I0
I1
I2
I3
I4
I7
tp649
I1
tp650
a((I0
I1
I2
I3
I4
I5
I6
I7
tp651
I2
tp652
a((I0
I1
I2
I3
I4
I5
I6
I7
tp653
I1
tp654
a((I0
I1
I2
I3
I4
I7
tp655
I5
tp656
a((I0
I1
I2
I3
I4
I5
I6
I7
tp657
I7
tp658
a((I0
I1
I2
I3
I4
I7
tp659
I5
tp660
a((I0
I1
I2
I3
I4
I7
tp661
I5
tp662
a((I0
I1
I2
I3
I4
I7
tp663
I2
tp664
a((I0
I1
I2
I3
I4
I5
I6
I7
tp665
I2
tp666
a((I0
I1
I2
I3
I4
I5
I6
I7
tp667
I2
tp668
a((I0
I1
I2
I3
I4
I5
I6
I7
tp669
I7
tp670
a((I0
I1
I2
I3
I4
I7
tp671
I5
tp672
a((I0
I1
I2
I3
I4
I5
I6
I7
tp673
I1
tp674
a((I0
I1
I2
I3
I4
I5
I6
I7
tp675
I1
tp676
a((I0
I1
I2
I3
I4
I5
I6
I7
tp677
I7
tp678
a((I0
I1
I2
I3
I4
I5
I6
I7
tp679
I1
tp680
a((I0
I1
I2
I3
I4
I7
tp681
I5
tp682
a((I0
I1
I2
I3
I4
I5
I6
I7
tp683
I1
tp684
a((I0
I1
I2
I3
I4
I7
tp685
I5
tp686
a((I0
I1
I2
I3
I4
I5
I6
I7
tp687
I7
tp688
a((I0
I1
I2
I3
I4
I7
tp689
I5
tp690
a((I0
I1
I2
I3
I4
I7
tp691
I2
tp692
a((I0
I1
I2
I3
I4
I5
I6
I7
tp693
I7
tp694
a((I0
I1
I2
I3
I4
I5
I6
I7
tp695
I2
tp696
a((I0
I1
I2
I3
I4
I5
I6
I7
tp697
I7
tp698
a((I0
I1
I2
I3
I4
I5
I6
I7
tp699
I6
tp700
a((I0
I1
I2
I3
I4
I5
I6
I7
tp701
I7
tp702
a((I0
I1
I2
I3
I4
I7
tp703
I5
tp704
a((I0
I1
I2
I3
I4
I7
tp705
I2
tp706
a((I0
I1
I2
I3
I4
I7
tp707
I2
tp708
a((I0
I1
I2
I3
I4
I7
tp709
I1
tp710
a((I0
I1
I2
I3
I4
I5
I6
I7
tp711
I2
tp712
a((I0
I1
I2
I3
I4
I5
I6
I7
tp713
I2
tp714
a((I0
I1
I2
I3
I4
I5
I6
I7
tp715
I2
tp716
a((I0
I1
I2
I3
I4
I7
tp717
I2
tp718
a((I0
I1
I2
I3
I4
I5
I6
I7
tp719
I7
tp720
a((I0
I1
I2
I3
I4
I5
I6
I7
tp721
I1
tp722
a((I0
I1
I2
I3
I4
I7
tp723
I5
tp724
a((I0
I1
I2
I3
I4
I5
I6
I7
tp725
I7
tp726
a((I0
I1
I2
I3
I4
I5
I6
I7
tp727
I7
tp728
a((I0
I1
I2
I3
I4
I5
I6
I7
tp729
I7
tp730
a((I0
I1
I2
I3
I4
I5
I6
I7
tp731
I7
tp732
a((I0
I1
I2
I3
I4
I7
tp733
I5
tp734
a((I0
I1
I2
I3
I4
I5
I6
I7
tp735
I7
tp736
a((I0
I1
I2
I3
I4
I5
I7
tp737
I6
tp738
a((I0
I1
I2
I3
I4
I5
I6
I7
tp739
I2
tp740
a((I0
I1
I2
I3
I4
I5
I6
I7
tp741
I1
tp742
a((I0
I1
I2
I3
I4
I5
I6
I7
tp743
I7
tp744
a((I0
I1
I2
I3
I4
I5
I6
I7
tp745
I1
tp746
a((I0
I1
I2
I3
I4
I5
I6
I7
tp747
I7
tp748
a((I0
I1
I2
I3
I4
I5
I6
I7
tp749
I7
tp750
a((I0
I1
I2
I3
I4
I5
I6
I7
tp751
I7
tp752
a((I0
I1
I2
I3
I4
I5
I6
I7
tp753
I7
tp754
a((I0
I1
I2
I3
I4
I5
I6
I7
tp755
I6
tp756
a((I0
I1
I2
I3
I4
I5
I6
I7
tp757
I7
tp758
a((I0
I1
I2
I3
I4
I5
I6
I7
tp759
I7
tp760
a((I0
I1
I2
I3
I4
I5
I6
I7
tp761
I6
tp762
a((I0
I1
I2
I3
I4
I5
I6
I7
tp763
I6
tp764
a((I0
I1
I2
I3
I4
I5
I6
I7
tp765
I6
tp766
a((I0
I1
I2
I3
I4
I5
I6
I7
tp767
I1
tp768
a((I0
I1
I2
I3
I4
I5
I6
I7
tp769
I7
tp770
a((I0
I1
I2
I3
I4
I7
tp771
I5
tp772
a((I0
I1
I2
I3
I4
I5
I6
I7
tp773
I7
tp774
a((I0
I1
I2
I3
I4
I5
I6
I7
tp775
I1
tp776
a((I0
I1
I2
I3
I4
I7
tp777
I5
tp778
a((I0
I1
I2
I3
I4
I5
I6
I7
tp779
I2
tp780
a((I0
I1
I2
I3
I4
I5
I6
I7
tp781
I2
tp782
a((I0
I1
I2
I3
I4
I5
I6
I7
tp783
I2
tp784
a((I0
I1
I2
I3
I4
I5
I6
I7
tp785
I7
tp786
a((I0
I1
I2
I3
I4
I5
I6
I7
tp787
I7
tp788
a((I0
I1
I2
I3
I4
I5
I6
I7
tp789
I7
tp790
a((I0
I1
I2
I3
I4
I5
I6
I7
tp791
I7
tp792
a((I0
I1
I2
I3
I4
I7
tp793
I5
tp794
a((I0
I1
I2
I3
I4
I5
I6
I7
tp795
I7
tp796
a((I0
I1
I2
I3
I4
I7
tp797
I5
tp798
a((I0
I1
I2
I3
I4
I5
I6
I7
tp799
I1
tp800
a((I0
I1
I2
I3
I4
I7
tp801
I5
tp802
a((I0
I1
I2
I3
I4
I7
tp803
I2
tp804
a((I0
I1
I2
I3
I4
I5
I6
I7
tp805
I6
tp806
a((I0
I1
I2
I3
I4
I5
I6
I7
tp807
I7
tp808
a((I0
I1
I2
I3
I4
I7
tp809
I5
tp810
a((I0
I1
I2
I3
I4
I7
tp811
I5
tp812
a((I0
I1
I2
I3
I4
I7
tp813
I5
tp814
a((I0
I1
I2
I3
I4
I7
tp815
I5
tp816
a((I0
I1
I2
I3
I4
I5
I6
tp817
I2
tp818
a((I0
I1
I2
I3
I4
I7
tp819
I1
tp820
a((I0
I1
I2
I3
I4
I7
tp821
I1
tp822
a((I0
I1
I2
I3
I4
I7
tp823
I2
tp824
a((I0
I1
I2
I3
I4
I5
I7
tp825
I6
tp826
a((I0
I1
I2
I3
I4
I7
tp827
I5
tp828
a((I0
I1
I2
I3
I4
I7
tp829
I5
tp830
a((I0
I1
I2
I3
I4
I7
tp831
I5
tp832
a((I0
I1
I2
I3
I4
I7
tp833
I2
tp834
a((I1
I2
I3
I4
I7
tp835
I0
tp836
a((I1
I2
I3
I4
I7
tp837
I0
tp838
a((I0
I1
I2
I3
I4
I7
tp839
I2
tp840
a((I0
I1
I2
I3
I4
I5
I6
I7
tp841
I7
tp842
a((I0
I1
I2
I3
I4
I7
tp843
I2
tp844
a((I0
I1
I2
I3
I4
I5
I6
I7
tp845
I7
tp846
a((I0
I1
I2
I3
I4
I5
I6
I7
tp847
I2
tp848
a((I0
I1
I2
I3
I4
I5
I6
I7
tp849
I7
tp850
a((I0
I1
I2
I3
I4
I5
I7
tp851
I6
tp852
a((I0
I1
I2
I3
I4
I5
I6
I7
tp853
I7
tp854
a((I0
I1
I2
I3
I4
I5
I6
I7
tp855
I7
tp856
a((I0
I1
I2
I3
I4
I5
I6
tp857
I0
tp858
a((I0
I1
I2
I3
I4
I7
tp859
I1
tp860
a((I0
I1
I2
I3
I4
I5
I6
I7
tp861
I7
tp862
a((I0
I1
I2
I3
I4
I7
tp863
I5
tp864
a((I0
I1
I2
I3
I4
I5
I6
I7
tp865
I7
tp866
a((I0
I1
I2
I3
I4
I7
tp867
I5
tp868
a((I0
I1
I2
I3
I4
I5
I6
I7
tp869
I1
tp870
a((I0
I1
I2
I3
I4
I5
I6
I7
tp871
I1
tp872
a((I0
I1
I2
I3
I4
I5
I6
I7
tp873
I7
tp874
a((I0
I1
I2
I3
I4
I5
I6
I7
tp875
I7
tp876
a((I0
I1
I2
I3
I4
I5
I6
I7
tp877
I1
tp878
a((I0
I1
I2
I3
I4
I5
I6
I7
tp879
I7
tp880
a((I0
I1
I2
I3
I4
I5
I6
I7
tp881
I1
tp882
a((I0
I1
I2
I3
I4
I5
I6
I7
tp883
I7
tp884
a((I0
I1
I2
I3
I4
I5
I6
I7
tp885
I7
tp886
a((I0
I1
I2
I3
I4
tp887
I1
tp888
a((I0
I1
I2
I3
I4
I5
I6
I7
tp889
I7
tp890
a((I0
I1
I2
I3
I4
I5
I6
I7
tp891
I7
tp892
a((I0
I1
I2
I3
I4
I5
I6
I7
tp893
I1
tp894
a((I0
I1
I2
I3
I4
I5
I6
I7
tp895
I7
tp896
a((I0
I1
I2
I3
I4
I7
tp897
I5
tp898
a((I0
I1
I2
I3
I4
I7
tp899
I5
tp900
a((I0
I1
I2
I3
I4
I7
tp901
I5
tp902
a((I0
I1
I2
I3
I4
I5
I7
tp903
I6
tp904
a((I0
I1
I2
I3
I4
I5
I6
I7
tp905
I7
tp906
a((I0
I1
I2
I3
I4
I5
I6
I7
tp907
I7
tp908
a((I0
I1
I2
I3
I4
I5
I6
I7
tp909
I7
tp910
a((I0
I1
I2
I3
I4
I5
I6
I7
tp911
I7
tp912
a((I0
I1
I2
I3
I4
I5
I6
I7
tp913
I7
tp914
a((I0
I1
I2
I3
I4
I5
I7
tp915
I6
tp916
a((I0
I1
I2
I3
I4
I5
I6
I7
tp917
I7
tp918
a((I1
I2
I3
I4
I7
tp919
I4
tp920
a((I0
I1
I2
I3
I4
I7
tp921
I5
tp922
a((I0
I1
I2
I3
I4
I5
I6
I7
tp923
I6
tp924
a((I0
I1
I2
I3
I4
I5
I7
tp925
I1
tp926
a((I0
I1
I2
I3
I4
I5
I7
tp927
I1
tp928
a((I0
I1
I2
I3
I4
I5
I6
I7
tp929
I1
tp930
a((I0
I1
I2
I3
I4
I5
I6
I7
tp931
I7
tp932
a((I0
I1
I2
I3
I4
I7
tp933
I1
tp934
a((I0
I1
I2
I3
I4
I5
I6
I7
tp935
I7
tp936
a((I0
I1
I2
I3
I4
I5
I7
tp937
I6
tp938
a((I0
I1
I2
I3
I4
I5
I6
I7
tp939
I1
tp940
a((I0
I1
I2
I3
I4
I5
I7
tp941
I1
tp942
a((I0
I1
I2
I3
I4
I5
I6
I7
tp943
I1
tp944
a((I0
I1
I2
I3
I4
I5
I7
tp945
I1
tp946
a((I0
I1
I2
I3
I4
I5
I6
I7
tp947
I7
tp948
a((I0
I1
I2
I3
I4
I5
I6
I7
tp949
I6
tp950
a((I0
I1
I2
I3
I4
I7
tp951
I2
tp952
a((I0
I1
I2
I3
I4
I7
tp953
I2
tp954
a((I0
I1
I2
I3
I4
I7
tp955
I5
tp956
a((I0
I1
I2
I3
I4
I7
tp957
I1
tp958
a((I0
I1
I2
I3
I4
I7
tp959
I1
tp960
a((I1
I2
I3
I4
I7
tp961
I4
tp962
a((I0
I1
I2
I3
I4
I7
tp963
I5
tp964
a((I0
I1
I2
I3
I4
I7
tp965
I2
tp966
a((I0
I1
I2
I3
I4
I5
I6
I7
tp967
I1
tp968
a((I0
I1
I2
I3
I4
I7
tp969
I1
tp970
a((I0
I1
I2
I3
I4
I7
tp971
I1
tp972
a((I0
I1
I2
I3
I4
I7
tp973
I2
tp974
a((I0
I1
I2
I3
I4
I5
I6
I7
tp975
I1
tp976
a((I0
I1
I2
I3
I4
I5
I6
I7
tp977
I1
tp978
a((I0
I1
I2
I3
I4
I7
tp979
I5
tp980
a((I0
I1
I2
I3
I4
I5
I6
I7
tp981
I1
tp982
a((I0
I1
I2
I3
I4
I5
I6
I7
tp983
I1
tp984
a((I0
I1
I2
I3
I4
I5
I6
I7
tp985
I7
tp986
a((I0
I1
I2
I3
I4
I5
I6
I7
tp987
I7
tp988
a((I0
I1
I2
I3
I4
I5
I6
I7
tp989
I7
tp990
a((I1
I2
I3
I4
I5
I6
I7
tp991
I6
tp992
a((I0
I1
I2
I3
I4
I5
I6
I7
tp993
I5
tp994
a((I0
I1
I2
I3
I4
I7
tp995
I5
tp996
a((I1
I2
I3
I4
I5
I6
I7
tp997
I1
tp998
a((I0
I1
I2
I3
I4
I7
tp999
I2
tp1000
a((I0
I1
I2
I3
I4
I7
tp1001
I2
tp1002
a((I0
I1
I2
I3
I4
I7
tp1003
I2
tp1004
a((I0
I1
I2
I3
I4
I7
tp1005
I2
tp1006
a((I0
I1
I2
I3
I4
I5
I6
I7
tp1007
I7
tp1008
a((I0
I1
I2
I3
I4
I5
I7
tp1009
I6
tp1010
a((I0
I1
I2
I3
I4
I7
tp1011
I5
tp1012
a((I0
I1
I2
I3
I4
I7
tp1013
I1
tp1014
a((I0
I1
I2
I3
I4
I7
tp1015
I1
tp1016
a((I0
I1
I2
I3
I4
I7
tp1017
I5
tp1018
a((I0
I1
I2
I3
I4
I5
I6
I7
tp1019
I7
tp1020
a((I0
I1
I2
I3
I4
I5
I6
I7
tp1021
I1
tp1022
a((I0
I1
I2
I3
I4
I5
I6
I7
tp1023
I2
tp1024
a((I0
I1
I2
I3
I4
I5
I6
I7
tp1025
I2
tp1026
a((I0
I1
I2
I3
I4
I5
I6
I7
tp1027
I2
tp1028
a((I0
I1
I2
I3
I4
I7
tp1029
I5
tp1030
a((I0
I1
I2
I3
I4
I5
I6
I7
tp1031
I7
tp1032
a((I0
I1
I2
I3
I4
I5
I6
I7
tp1033
I7
tp1034
a((I0
I1
I2
I3
I4
I7
tp1035
I5
tp1036
a((I0
I1
I2
I3
I4
I5
I6
I7
tp1037
I7
tp1038
a((I0
I1
I2
I3
I4
I7
tp1039
I5
tp1040
a((I0
I1
I2
I3
I4
I5
I6
I7
tp1041
I1
tp1042
a((I0
I1
I2
I3
I4
I5
I6
I7
tp1043
I1
tp1044
a((I0
I1
I2
I3
I4
I5
I6
I7
tp1045
I5
tp1046
a((I0
I1
I2
I3
I4
I5
I6
I7
tp1047
I2
tp1048
a((I0
I1
I2
I3
I4
I5
I6
I7
tp1049
I2
tp1050
a((I0
I1
I2
I3
I4
I5
I6
I7
tp1051
I7
tp1052
a((I0
I1
I2
I3
I4
I5
I7
tp1053
I6
tp1054
a((I0
I1
I2
I3
I4
I5
I7
tp1055
I1
tp1056
a((I0
I1
I2
I3
I4
I5
I6
I7
tp1057
I7
tp1058
a((I0
I1
I2
I3
I4
I7
tp1059
I1
tp1060
a((I0
I1
I2
I3
I4
I5
I6
I7
tp1061
I7
tp1062
a((I0
I1
I2
I3
I4
I7
tp1063
I5
tp1064
a((I0
I1
I2
I3
I4
I7
tp1065
I5
tp1066
a((I0
I1
I2
I3
I4
I5
I6
I7
tp1067
I6
tp1068
a((I0
I1
I2
I3
I4
I5
I6
I7
tp1069
I6
tp1070
a((I0
I1
I2
I3
I4
I5
I6
I7
tp1071
I1
tp1072
a((I0
I1
I2
I3
I4
I5
I6
I7
tp1073
I1
tp1074
a((I0
I1
I2
I3
I4
I7
tp1075
I5
tp1076
a((I0
I1
I2
I3
I4
I5
I6
I7
tp1077
I7
tp1078
a((I0
I1
I2
I3
I4
I5
I6
I7
tp1079
I7
tp1080
a((I0
I1
I2
I3
I4
I5
I6
I7
tp1081
I6
tp1082
a((I0
I1
I2
I3
I4
I5
I6
I7
tp1083
I5
tp1084
a((I0
I1
I2
I3
I4
I5
I6
I7
tp1085
I5
tp1086
a((I0
I1
I2
I3
I4
I5
I6
I7
tp1087
I7
tp1088
a((I0
I1
I2
I3
I4
I5
I6
I7
tp1089
I7
tp1090
a((I0
I1
I2
I3
I4
I5
I6
tp1091
I1
tp1092
a((I0
I1
I2
I3
I4
I5
I6
I7
tp1093
I1
tp1094
a((I0
I1
I2
I3
I4
I5
I6
I7
tp1095
I7
tp1096
a((I0
I1
I2
I3
I4
I5
I6
I7
tp1097
I7
tp1098
a((I0
I1
I2
I3
I4
I5
I6
I7
tp1099
I7
tp1100
a((I0
I1
I2
I3
I4
I5
I6
I7
tp1101
I1
tp1102
a((I0
I1
I2
I3
I4
I5
I6
I7
tp1103
I7
tp1104
a((I0
I1
I2
I3
I4
I5
I6
I7
tp1105
I7
tp1106
a((I0
I1
I2
I3
I4
I7
tp1107
I5
tp1108
a((I0
I1
I2
I3
I4
I5
I6
I7
tp1109
I7
tp1110
a((I0
I1
I2
I3
I4
I5
I6
I7
tp1111
I2
tp1112
a((I0
I1
I2
I3
I4
I5
I6
I7
tp1113
I2
tp1114
a((I0
I1
I2
I3
I4
I5
I6
I7
tp1115
I7
tp1116
a((I0
I1
I2
I3
I4
I5
I6
I7
tp1117
I1
tp1118
a((I0
I1
I2
I3
I4
I5
I6
I7
tp1119
I1
tp1120
a((I0
I1
I2
I3
I4
I5
I6
I7
tp1121
I1
tp1122
a((I0
I1
I2
I3
I4
I5
I6
I7
tp1123
I1
tp1124
a((I0
I1
I2
I3
I4
I5
I6
I7
tp1125
I6
tp1126
a((I0
I1
I2
I3
I4
I5
I6
I7
tp1127
I7
tp1128
a((I0
I1
I2
I3
I4
I5
I6
I7
tp1129
I7
tp1130
a((I0
I1
I2
I3
I4
I5
I6
I7
tp1131
I1
tp1132
a((I0
I1
I2
I3
I4
I5
I6
I7
tp1133
I1
tp1134
a((I0
I1
I2
I3
I4
I5
I6
I7
tp1135
I7
tp1136
a((I0
I1
I2
I3
I4
I5
I6
I7
tp1137
I2
tp1138
a((I0
I1
I2
I3
I4
I5
I6
I7
tp1139
I7
tp1140
a((I0
I1
I2
I3
I4
I7
tp1141
I5
tp1142
a((I0
I1
I2
I3
I4
I5
I6
I7
tp1143
I7
tp1144
a((I0
I1
I2
I3
I4
I5
I6
I7
tp1145
I7
tp1146
a((I0
I1
I2
I3
I4
I7
tp1147
I5
tp1148
a((I0
I1
I2
I3
I4
I5
I6
I7
tp1149
I1
tp1150
a((I0
I1
I2
I3
I4
I5
I6
I7
tp1151
I1
tp1152
a((I0
I1
I2
I3
I4
I5
I6
I7
tp1153
I7
tp1154
a((I0
I1
I2
I3
I4
I5
I7
tp1155
I6
tp1156
a((I0
I1
I2
I3
I4
I5
I6
I7
tp1157
I7
tp1158
a((I0
I1
I2
I3
I4
I7
tp1159
I1
tp1160
a((I0
I1
I2
I3
I4
I7
tp1161
I1
tp1162
a((I0
I1
I2
I3
I4
I7
tp1163
I5
tp1164
a((I0
I1
I2
I3
I4
I5
I6
I7
tp1165
I2
tp1166
a((I0
I1
I2
I3
I4
I7
tp1167
I5
tp1168
a((I0
I1
I2
I3
I4
I5
I6
I7
tp1169
I7
tp1170
a((I0
I1
I2
I3
I4
I5
I6
I7
tp1171
I7
tp1172
a((I0
I1
I2
I3
I4
I5
I6
I7
tp1173
I2
tp1174
a((I0
I1
I2
I3
I4
I7
tp1175
I5
tp1176
a((I0
I1
I2
I3
I4
I5
I6
I7
tp1177
I7
tp1178
a((I0
I1
I2
I3
I4
I7
tp1179
I1
tp1180
a((I0
I1
I2
I3
I4
I5
I6
I7
tp1181
I7
tp1182
a((I0
I1
I2
I3
I4
I5
I6
I7
tp1183
I1
tp1184
a((I0
I1
I2
I3
I4
I7
tp1185
I5
tp1186
a((I0
I1
I2
I3
I4
I5
I6
I7
tp1187
I7
tp1188
a((I0
I1
I2
I3
I4
I5
I6
I7
tp1189
I7
tp1190
a((I0
I1
I2
I3
I4
I7
tp1191
I1
tp1192
a((I0
I1
I2
I3
I4
I5
I6
I7
tp1193
I2
tp1194
a((I0
I1
I2
I3
I4
I5
I6
I7
tp1195
I2
tp1196
a((I0
I1
I2
I3
I4
I5
I6
I7
tp1197
I2
tp1198
a((I0
I1
I2
I3
I4
I5
I6
I7
tp1199
I2
tp1200
a((I0
I1
I2
I3
I4
I5
I6
I7
tp1201
I7
tp1202
a((I0
I1
I2
I3
I4
I5
I6
I7
tp1203
I7
tp1204
a((I0
I1
I2
I3
I4
I5
I6
I7
tp1205
I7
tp1206
a((I0
I1
I2
I3
I4
I5
I6
I7
tp1207
I7
tp1208
a((I0
I1
I2
I3
I4
I5
I6
I7
tp1209
I7
tp1210
a((I0
I1
I2
I3
I4
I5
I6
I7
tp1211
I7
tp1212
a((I0
I1
I2
I3
I4
I5
I6
I7
tp1213
I7
tp1214
a((I0
I1
I2
I3
I4
I7
tp1215
I5
tp1216
a((I0
I1
I2
I3
I4
I7
tp1217
I1
tp1218
a((I0
I1
I2
I3
I4
I5
I6
I7
tp1219
I7
tp1220
a((I0
I1
I2
I3
I4
I5
I6
I7
tp1221
I7
tp1222
a((I0
I1
I2
I3
I4
I7
tp1223
I5
tp1224
a((I0
I1
I2
I3
I4
I7
tp1225
I5
tp1226
a((I0
I1
I2
I3
I4
I5
I6
I7
tp1227
I7
tp1228
a((I0
I1
I2
I3
I4
I7
tp1229
I5
tp1230
a((I0
I1
I2
I3
I4
I5
I6
I7
tp1231
I7
tp1232
a((I0
I1
I2
I3
I4
I5
I6
I7
tp1233
I1
tp1234
a((I0
I1
I2
I3
I4
I5
I6
I7
tp1235
I5
tp1236
a((I0
I1
I2
I3
I4
I5
I6
I7
tp1237
I1
tp1238
a((I0
I1
I2
I3
I4
I5
I6
I7
tp1239
I1
tp1240
a((I0
I1
I2
I3
I4
I5
I6
I7
tp1241
I1
tp1242
a((I0
I1
I2
I3
I4
I5
I6
I7
tp1243
I1
tp1244
a((I0
I1
I2
I3
I4
I5
I6
I7
tp1245
I7
tp1246
a((I0
I1
I2
I3
I4
I5
I6
I7
tp1247
I7
tp1248
a((I0
I1
I2
I3
I4
I5
I6
I7
tp1249
I7
tp1250
a((I0
I1
I2
I3
I4
I5
I6
I7
tp1251
I1
tp1252
a((I0
I1
I2
I3
I4
I5
I6
I7
tp1253
I1
tp1254
a((I0
I1
I2
I3
I4
I5
I6
I7
tp1255
I7
tp1256
a((I0
I1
I2
I3
I4
I5
I6
I7
tp1257
I7
tp1258
a((I0
I1
I2
I3
I4
I5
I6
I7
tp1259
I6
tp1260
a((I0
I1
I2
I3
I4
I7
tp1261
I5
tp1262
a((I0
I1
I2
I3
I4
I5
I6
I7
tp1263
I1
tp1264
a((I0
I1
I2
I3
I4
I5
I6
I7
tp1265
I6
tp1266
a((I0
I1
I2
I3
I4
I7
tp1267
I2
tp1268
a((I0
I1
I2
I3
I4
I7
tp1269
I2
tp1270
a((I0
I1
I2
I3
I4
I7
tp1271
I1
tp1272
a((I0
I1
I2
I3
I4
I7
tp1273
I1
tp1274
a((I0
I1
I2
I3
I4
I5
I6
I7
tp1275
I2
tp1276
a((I0
I1
I2
I3
I4
I5
I6
I7
tp1277
I7
tp1278
a((I0
I1
I2
I3
I4
I5
I6
I7
tp1279
I7
tp1280
a((I0
I1
I2
I3
I4
I5
I6
I7
tp1281
I1
tp1282
a((I0
I1
I2
I3
I4
I7
tp1283
I5
tp1284
a((I0
I1
I2
I3
I4
I5
I6
I7
tp1285
I7
tp1286
a((I0
I1
I2
I3
I4
I5
I6
I7
tp1287
I7
tp1288
a((I0
I1
I2
I3
I4
I7
tp1289
I5
tp1290
a((I0
I1
I2
I3
I4
I5
I6
I7
tp1291
I7
tp1292
a((I0
I1
I2
I3
I4
I5
I6
I7
tp1293
I1
tp1294
a((I0
I1
I2
I3
I4
I5
I6
I7
tp1295
I1
tp1296
a((I0
I1
I2
I3
I4
I7
tp1297
I5
tp1298
a((I0
I1
I2
I3
I4
I5
I6
I7
tp1299
I1
tp1300
a((I0
I1
I2
I3
I4
I7
tp1301
I1
tp1302
a((I0
I1
I2
I3
I4
I5
I6
I7
tp1303
I2
tp1304
a((I0
I1
I2
I3
I4
I5
I6
I7
tp1305
I2
tp1306
a((I0
I1
I2
I3
I4
I7
tp1307
I2
tp1308
a((I0
I1
I2
I3
I4
I5
I6
I7
tp1309
I7
tp1310
a((I0
I1
I2
I3
I4
I5
I6
I7
tp1311
I1
tp1312
a((I0
I1
I2
I3
I4
I5
I6
I7
tp1313
I1
tp1314
a((I0
I1
I2
I3
I4
I5
I6
I7
tp1315
I1
tp1316
a((I0
I1
I2
I3
I4
I5
I6
I7
tp1317
I1
tp1318
a((I0
I1
I2
I3
I4
I5
I6
I7
tp1319
I2
tp1320
a((I0
I1
I2
I3
I4
I5
I6
I7
tp1321
I7
tp1322
a((I0
I1
I2
I3
I4
I5
I6
I7
tp1323
I7
tp1324
a((I0
I1
I2
I3
I4
I5
I6
I7
tp1325
I7
tp1326
a((I0
I1
I2
I3
I4
I7
tp1327
I2
tp1328
a((I0
I1
I2
I3
I4
I5
I6
I7
tp1329
I7
tp1330
a((I0
I1
I2
I3
I4
I7
tp1331
I2
tp1332
a((I0
I1
I2
I3
I4
I5
I6
I7
tp1333
I7
tp1334
a((I0
I1
I2
I3
I4
I5
I6
I7
tp1335
I7
tp1336
a((I0
I1
I2
I3
I4
I7
tp1337
I5
tp1338
a((I0
I1
I2
I3
I4
I5
I6
I7
tp1339
I7
tp1340
a((I0
I1
I2
I3
I4
I5
I6
I7
tp1341
I1
tp1342
a((I0
I1
I2
I3
I4
I7
tp1343
I1
tp1344
a((I0
I1
I2
I3
I4
I7
tp1345
I1
tp1346
a((I0
I1
I2
I3
I4
I5
I6
I7
tp1347
I7
tp1348
a((I0
I1
I2
I3
I4
I5
I6
I7
tp1349
I7
tp1350
a((I0
I1
I2
I3
I4
I7
tp1351
I1
tp1352
a((I0
I1
I2
I3
I4
I5
I7
tp1353
I6
tp1354
a((I0
I1
I2
I3
I4
I7
tp1355
I1
tp1356
a((I0
I1
I2
I3
I4
I5
I6
I7
tp1357
I1
tp1358
a((I0
I1
I2
I3
I4
I5
I6
I7
tp1359
I1
tp1360
a((I0
I1
I2
I3
I4
I5
I6
I7
tp1361
I7
tp1362
a((I0
I1
I2
I3
I4
I5
I6
I7
tp1363
I7
tp1364
a((I0
I1
I2
I3
I4
I5
I6
I7
tp1365
I1
tp1366
a((I0
I1
I2
I3
I4
I5
I6
I7
tp1367
I1
tp1368
a((I0
I1
I2
I3
I4
I5
I6
I7
tp1369
I1
tp1370
a((I0
I1
I2
I3
I4
I5
I6
tp1371
I2
tp1372
a((I0
I1
I2
I3
I4
I5
I6
tp1373
I2
tp1374
a((I0
I1
I2
I3
I4
I5
I6
I7
tp1375
I1
tp1376
a((I0
I1
I2
I3
I4
I5
I6
I7
tp1377
I1
tp1378
a((I0
I1
I2
I3
I4
I5
I6
I7
tp1379
I1
tp1380
a((I0
I1
I2
I3
I4
I5
I6
I7
tp1381
I1
tp1382
a((I0
I1
I2
I3
I4
I5
I6
I7
tp1383
I1
tp1384
a((I0
I1
I2
I3
I4
I5
I6
I7
tp1385
I2
tp1386
a((I0
I1
I2
I3
I4
I5
I6
I7
tp1387
I2
tp1388
a((I0
I1
I2
I3
I4
I5
I6
I7
tp1389
I2
tp1390
a((I0
I1
I2
I3
I4
I5
I6
I7
tp1391
I2
tp1392
a((I0
I1
I2
I3
I4
I5
I6
I7
tp1393
I2
tp1394
a((I0
I1
I2
I3
I4
I5
I6
I7
tp1395
I7
tp1396
a((I0
I1
I2
I3
I4
I5
I6
I7
tp1397
I1
tp1398
a((I0
I1
I2
I3
I4
I5
I6
I7
tp1399
I7
tp1400
a((I0
I1
I2
I3
I4
I5
I6
I7
tp1401
I1
tp1402
a((I0
I1
I2
I3
I4
I5
I6
I7
tp1403
I2
tp1404
a((I0
I1
I2
I3
I4
I5
I6
I7
tp1405
I2
tp1406
a((I0
I1
I2
I3
I4
I5
I6
I7
tp1407
I2
tp1408
a((I0
I1
I2
I3
I4
I5
I6
I7
tp1409
I2
tp1410
a((I0
I1
I2
I3
I4
I5
I6
I7
tp1411
I2
tp1412
a((I0
I1
I2
I3
I4
I5
I6
I7
tp1413
I7
tp1414
a((I0
I1
I2
I3
I4
I7
tp1415
I1
tp1416
a((I0
I1
I2
I3
I4
I5
I6
I7
tp1417
I7
tp1418
a((I0
I1
I2
I3
I4
I7
tp1419
I1
tp1420
a((I0
I1
I2
I3
I4
I5
I6
I7
tp1421
I7
tp1422
a((I0
I1
I2
I3
I4
I5
I6
I7
tp1423
I7
tp1424
a((I0
I1
I2
I3
I4
I7
tp1425
I5
tp1426
a((I0
I1
I2
I3
I4
I5
I6
I7
tp1427
I1
tp1428
a((I0
I1
I2
I3
I4
I5
I6
I7
tp1429
I1
tp1430
a((I0
I1
I2
I3
I4
I5
I6
I7
tp1431
I1
tp1432
a((I0
I1
I2
I3
I4
I7
tp1433
I1
tp1434
a((I0
I1
I2
I3
I4
I7
tp1435
I5
tp1436
a((I0
I1
I2
I3
I4
I5
I7
tp1437
I1
tp1438
a((I0
I1
I2
I3
I4
I7
tp1439
I5
tp1440
a((I0
I1
I2
I3
I4
I5
I6
I7
tp1441
I1
tp1442
a((I0
I1
I2
I3
I4
I5
I6
I7
tp1443
I6
tp1444
a((I0
I1
I2
I3
I4
I5
I6
I7
tp1445
I1
tp1446
a((I0
I1
I2
I3
I4
I5
I6
I7
tp1447
I1
tp1448
a((I0
I1
I2
I3
I4
I5
I6
I7
tp1449
I7
tp1450
a((I0
I1
I2
I3
I4
I5
I6
I7
tp1451
I7
tp1452
a((I0
I1
I2
I3
I4
I5
I6
I7
tp1453
I7
tp1454
a((I0
I1
I2
I3
I4
I5
I6
I7
tp1455
I7
tp1456
a((I0
I1
I2
I3
I4
I5
I6
I7
tp1457
I7
tp1458
a((I0
I1
I2
I3
I4
I5
I6
I7
tp1459
I7
tp1460
a((I0
I1
I2
I3
I4
I7
tp1461
I1
tp1462
a((I0
I1
I2
I3
I4
I5
I6
I7
tp1463
I1
tp1464
a((I0
I1
I2
I3
I4
I5
I6
I7
tp1465
I7
tp1466
a((I0
I1
I2
I3
I4
I5
I6
I7
tp1467
I2
tp1468
a((I0
I1
I2
I3
I4
I5
I6
I7
tp1469
I1
tp1470
a((I0
I1
I2
I3
I4
I5
I6
I7
tp1471
I1
tp1472
a((I0
I1
I2
I3
I4
I5
I6
I7
tp1473
I1
tp1474
a((I0
I1
I2
I3
I4
I5
I6
I7
tp1475
I1
tp1476
a((I0
I1
I2
I3
I4
I5
I6
I7
tp1477
I7
tp1478
a((I0
I1
I2
I3
I4
I5
I6
I7
tp1479
I1
tp1480
a((I0
I1
I2
I3
I4
I5
I6
I7
tp1481
I1
tp1482
a((I0
I1
I2
I3
I4
I5
I6
I7
tp1483
I7
tp1484
a((I0
I1
I2
I3
I4
I7
tp1485
I1
tp1486
a((I0
I1
I2
I3
I4
I7
tp1487
I1
tp1488
a((I0
I1
I2
I3
I4
I5
I7
tp1489
I6
tp1490
a((I0
I1
I2
I3
I4
I7
tp1491
I1
tp1492
a((I0
I1
I2
I3
I4
I7
tp1493
I1
tp1494
a((I0
I1
I2
I3
I4
I5
I6
I7
tp1495
I7
tp1496
a((I0
I1
I2
I3
I4
I5
I6
I7
tp1497
I2
tp1498
a((I0
I1
I2
I3
I4
I5
I6
I7
tp1499
I2
tp1500
a((I0
I1
I2
I3
I4
I7
tp1501
I5
tp1502
a((I0
I1
I2
I3
I4
I7
tp1503
I1
tp1504
a((I0
I1
I2
I3
I4
I7
tp1505
I1
tp1506
a((I0
I1
I2
I3
I4
I5
I6
I7
tp1507
I7
tp1508
a((I0
I1
I2
I3
I4
I7
tp1509
I5
tp1510
a((I0
I1
I2
I3
I4
I5
I6
I7
tp1511
I1
tp1512
a((I0
I1
I2
I3
I4
I5
I6
I7
tp1513
I1
tp1514
a((I0
I1
I2
I3
I4
I5
I6
I7
tp1515
I7
tp1516
a((I0
I1
I2
I3
I4
I5
I6
I7
tp1517
I7
tp1518
a((I0
I1
I2
I3
I4
I7
tp1519
I5
tp1520
a((I0
I1
I2
I3
I4
I5
I6
I7
tp1521
I7
tp1522
a((I0
I1
I2
I3
I4
I5
I6
I7
tp1523
I1
tp1524
a((I0
I1
I2
I3
I4
I5
I6
I7
tp1525
I1
tp1526
a((I0
I1
I2
I3
I4
I7
tp1527
I5
tp1528
a((I0
I1
I2
I3
I4
I5
I7
tp1529
I6
tp1530
a((I0
I1
I2
I3
I4
I5
I6
I7
tp1531
I1
tp1532
a((I0
I1
I2
I3
I4
I5
I6
I7
tp1533
I1
tp1534
a((I0
I1
I2
I3
I4
I5
I6
I7
tp1535
I1
tp1536
a((I0
I1
I2
I3
I4
I5
I6
I7
tp1537
I7
tp1538
a((I0
I1
I2
I3
I4
I5
I6
I7
tp1539
I1
tp1540
a((I0
I1
I2
I3
I4
I7
tp1541
I5
tp1542
a((I0
I1
I2
I3
I4
I5
I6
I7
tp1543
I7
tp1544
a((I0
I1
I2
I3
I4
I5
I6
I7
tp1545
I7
tp1546
a((I0
I1
I2
I3
I4
I5
I6
I7
tp1547
I7
tp1548
a((I0
I1
I2
I3
I4
I5
I6
I7
tp1549
I7
tp1550
a((I0
I1
I2
I3
I4
I7
tp1551
I5
tp1552
a((I0
I1
I2
I3
I4
I5
I6
I7
tp1553
I5
tp1554
a((I0
I1
I2
I3
I4
I5
I6
I7
tp1555
I5
tp1556
a((I0
I1
I2
I3
I4
I5
I6
I7
tp1557
I7
tp1558
a((I0
I1
I2
I3
I4
I5
I6
I7
tp1559
I7
tp1560
a((I0
I1
I2
I3
I4
I7
tp1561
I1
tp1562
a((I0
I1
I2
I3
I4
I5
I6
I7
tp1563
I7
tp1564
a((I0
I1
I2
I3
I4
I5
I6
I7
tp1565
I2
tp1566
a((I0
I1
I2
I3
I4
I5
I6
I7
tp1567
I2
tp1568
a((I0
I1
I2
I3
I4
I5
I6
I7
tp1569
I2
tp1570
a((I0
I1
I2
I3
I4
I5
I6
I7
tp1571
I7
tp1572
a((I0
I1
I2
I3
I4
I7
tp1573
I1
tp1574
a((I0
I1
I2
I3
I4
I5
I6
I7
tp1575
I2
tp1576
a((I0
I1
I2
I3
I4
I5
I6
I7
tp1577
I7
tp1578
a((I0
I1
I2
I3
I4
I5
I6
I7
tp1579
I7
tp1580
a((I0
I1
I2
I3
I4
I5
I7
tp1581
I6
tp1582
a((I0
I1
I2
I3
I4
I7
tp1583
I5
tp1584
a((I0
I1
I2
I3
I4
I5
I7
tp1585
I6
tp1586
a((I0
I1
I2
I3
I4
I5
I6
I7
tp1587
I2
tp1588
a((I0
I1
I2
I3
I4
I7
tp1589
I2
tp1590
a((I0
I1
I2
I3
I4
I7
tp1591
I5
tp1592
a((I0
I1
I2
I3
I4
I5
I6
I7
tp1593
I7
tp1594
a((I0
I1
I2
I3
I4
I7
tp1595
I2
tp1596
a((I0
I1
I2
I3
I4
I7
tp1597
I2
tp1598
a((I0
I1
I2
I3
I4
I7
tp1599
I2
tp1600
a((I0
I1
I2
I3
I4
I7
tp1601
I5
tp1602
a((I0
I1
I2
I3
I4
I5
I6
I7
tp1603
I1
tp1604
a((I0
I1
I2
I3
I4
I5
I6
I7
tp1605
I7
tp1606
a((I0
I1
I2
I3
I4
I5
I6
I7
tp1607
I7
tp1608
a((I0
I1
I2
I3
I4
I7
tp1609
I1
tp1610
a((I0
I1
I2
I3
I4
I7
tp1611
I1
tp1612
a((I0
I1
I2
I3
I4
I7
tp1613
I1
tp1614
a((I0
I1
I2
I3
I4
I5
I6
I7
tp1615
I7
tp1616
a((I0
I1
I2
I3
I4
I7
tp1617
I5
tp1618
a((I0
I1
I2
I3
I4
I5
I6
I7
tp1619
I2
tp1620
a((I0
I1
I2
I3
I4
I5
I6
I7
tp1621
I2
tp1622
a((I0
I1
I2
I3
I4
I7
tp1623
I2
tp1624
a((I0
I1
I2
I3
I4
I5
I6
I7
tp1625
I6
tp1626
a((I0
I1
I2
I3
I4
I5
I6
I7
tp1627
I7
tp1628
a((I0
I1
I2
I3
I4
I5
I6
I7
tp1629
I2
tp1630
a((I0
I1
I2
I3
I4
I7
tp1631
I5
tp1632
a((I0
I1
I2
I3
I4
I7
tp1633
I1
tp1634
a((I0
I1
I2
I3
I4
I5
I6
I7
tp1635
I2
tp1636
a((I0
I1
I2
I3
I4
I5
I6
I7
tp1637
I1
tp1638
a((I0
I1
I2
I3
I4
I5
I6
I7
tp1639
I1
tp1640
a((I0
I1
I2
I3
I4
I5
I6
I7
tp1641
I7
tp1642
a((I0
I1
I2
I3
I4
I5
I6
I7
tp1643
I1
tp1644
a((I0
I1
I2
I3
I4
I5
I6
I7
tp1645
I1
tp1646
a((I0
I1
I2
I3
I4
I7
tp1647
I1
tp1648
a((I0
I1
I2
I3
I4
I7
tp1649
I1
tp1650
a((I0
I1
I2
I3
I4
I5
I6
I7
tp1651
I7
tp1652
a((I0
I1
I2
I3
I4
I5
I6
I7
tp1653
I7
tp1654
a((I0
I1
I2
I3
I4
I5
I7
tp1655
I2
tp1656
a((I0
I1
I2
I3
I4
I5
I7
tp1657
I2
tp1658
a((I0
I1
I2
I3
I4
I5
I7
tp1659
I2
tp1660
a((I0
I1
I2
I3
I4
I5
I6
I7
tp1661
I7
tp1662
a((I0
I1
I2
I3
I4
I5
I6
I7
tp1663
I2
tp1664
a((I0
I1
I2
I3
I4
I7
tp1665
I1
tp1666
a((I0
I1
I2
I3
I4
I7
tp1667
I5
tp1668
a((I0
I1
I2
I3
I4
I5
I6
I7
tp1669
I7
tp1670
a((I0
I1
I2
I3
I4
I7
tp1671
I5
tp1672
a((I0
I1
I2
I3
I4
I7
tp1673
I2
tp1674
a((I0
I1
I2
I3
I4
I5
I6
I7
tp1675
I7
tp1676
a((I0
I1
I2
I3
I4
I5
I6
I7
tp1677
I7
tp1678
a((I0
I1
I2
I3
I4
I5
I6
I7
tp1679
I7
tp1680
a((I0
I1
I2
I3
I4
I7
tp1681
I5
tp1682
a((I0
I1
I2
I3
I4
I7
tp1683
I1
tp1684
a((I0
I1
I2
I3
I4
I7
tp1685
I1
tp1686
a((I0
I1
I2
I3
I4
I5
I6
I7
tp1687
I7
tp1688
a((I0
I1
I2
I3
I4
I7
tp1689
I5
tp1690
a((I0
I1
I2
I3
I4
I5
I6
I7
tp1691
I7
tp1692
a((I0
I1
I2
I3
I4
I5
I6
I7
tp1693
I7
tp1694
a((I0
I1
I2
I3
I4
I5
I6
I7
tp1695
I7
tp1696
a((I0
I1
I2
I3
I4
I5
I6
tp1697
I2
tp1698
a((I0
I1
I2
I3
I4
I5
I6
tp1699
I2
tp1700
a((I0
I1
I2
I3
I4
I5
I6
I7
tp1701
I1
tp1702
a((I0
I1
I2
I3
I4
I5
I6
I7
tp1703
I1
tp1704
a((I0
I1
I2
I3
I4
I7
tp1705
I5
tp1706
a((I0
I1
I2
I3
I4
I7
tp1707
I5
tp1708
a((I0
I1
I2
I3
I4
I5
I6
I7
tp1709
I7
tp1710
a((I0
I1
I2
I3
I4
I5
I6
I7
tp1711
I7
tp1712
a((I0
I1
I2
I3
I4
I5
I6
I7
tp1713
I7
tp1714
a((I0
I1
I2
I3
I4
I7
tp1715
I5
tp1716
a((I0
I1
I2
I3
I4
I7
tp1717
I5
tp1718
a((I0
I1
I2
I3
I4
I7
tp1719
I5
tp1720
a((I0
I1
I2
I3
I4
I7
tp1721
I5
tp1722
a((I0
I1
I2
I3
I4
I5
I6
I7
tp1723
I7
tp1724
a((I0
I1
I2
I3
I4
I5
I6
I7
tp1725
I7
tp1726
a((I0
I1
I2
I3
I4
I5
I6
I7
tp1727
I7
tp1728
a((I0
I1
I2
I3
I4
I7
tp1729
I1
tp1730
a((I0
I1
I2
I3
I4
I7
tp1731
I5
tp1732
a((I0
I1
I2
I3
I4
I5
I7
tp1733
I2
tp1734
a((I0
I1
I2
I3
I4
I5
I6
I7
tp1735
I7
tp1736
a((I0
I1
I2
I3
I4
I5
I6
I7
tp1737
I1
tp1738
a((I0
I1
I2
I3
I4
I5
I6
I7
tp1739
I1
tp1740
a((I0
I1
I2
I3
I4
I5
I6
I7
tp1741
I2
tp1742
a((I0
I1
I2
I3
I4
I5
I6
I7
tp1743
I7
tp1744
a((I0
I1
I2
I3
I4
I5
I6
I7
tp1745
I1
tp1746
a((I1
I2
I3
I4
I7
tp1747
I0
tp1748
a((I0
I1
I2
I3
I4
I5
I7
tp1749
I6
tp1750
a((I0
I1
I2
I3
I4
I5
I6
I7
tp1751
I6
tp1752
a((I0
I1
I2
I3
I4
I7
tp1753
I5
tp1754
a((I0
I1
I2
I3
I4
I7
tp1755
I5
tp1756
a((I0
I1
I2
I3
I4
I5
I6
I7
tp1757
I7
tp1758
a((I0
I1
I2
I3
I4
I5
I6
I7
tp1759
I7
tp1760
a((I0
I1
I2
I3
I4
I5
I6
I7
tp1761
I7
tp1762
a((I0
I1
I2
I3
I4
I7
tp1763
I5
tp1764
a((I0
I1
I2
I3
I4
I7
tp1765
I1
tp1766
a((I0
I1
I2
I3
I4
I7
tp1767
I5
tp1768
a((I0
I1
I2
I3
I4
I5
I6
I7
tp1769
I7
tp1770
a((I0
I1
I2
I3
I4
I5
I6
I7
tp1771
I7
tp1772
a((I0
I1
I2
I3
I4
I5
I6
I7
tp1773
I7
tp1774
a((I0
I1
I2
I3
I4
I5
I6
I7
tp1775
I1
tp1776
a((I0
I1
I2
I3
I4
I5
I6
I7
tp1777
I1
tp1778
a((I0
I1
I2
I3
I4
I5
I6
I7
tp1779
I7
tp1780
a((I0
I1
I2
I3
I4
I5
I6
I7
tp1781
I7
tp1782
a((I0
I1
I2
I3
I4
I7
tp1783
I5
tp1784
a((I0
I1
I2
I3
I4
I5
I6
I7
tp1785
I7
tp1786
a((I0
I1
I2
I3
I4
I7
tp1787
I5
tp1788
a((I0
I1
I2
I3
I4
I5
I6
I7
tp1789
I7
tp1790
a((I0
I1
I2
I3
I4
I7
tp1791
I5
tp1792
a((I0
I1
I2
I3
I4
I5
I6
I7
tp1793
I1
tp1794
a((I0
I1
I2
I3
I4
I5
I6
I7
tp1795
I7
tp1796
a((I0
I1
I2
I3
I4
I7
tp1797
I1
tp1798
a((I0
I1
I2
I3
I4
I7
tp1799
I1
tp1800
a((I0
I1
I2
I3
I4
I5
I6
I7
tp1801
I7
tp1802
a((I0
I1
I2
I3
I4
I7
tp1803
I1
tp1804
a((I0
I1
I2
I3
I4
I5
I6
I7
tp1805
I1
tp1806
a((I0
I1
I2
I3
I4
I5
I7
tp1807
I6
tp1808
a((I0
I1
I2
I3
I4
I5
I6
I7
tp1809
I7
tp1810
a((I0
I1
I2
I3
I4
I5
I6
I7
tp1811
I1
tp1812
a((I0
I1
I2
I3
I4
I5
I6
I7
tp1813
I1
tp1814
a((I0
I1
I2
I3
I4
I5
I6
I7
tp1815
I7
tp1816
a((I0
I1
I2
I3
I4
I5
I6
I7
tp1817
I7
tp1818
a((I0
I1
I2
I3
I4
I7
tp1819
I2
tp1820
a((I0
I1
I2
I3
I4
I7
tp1821
I1
tp1822
a((I0
I1
I2
I3
I4
I5
I6
I7
tp1823
I7
tp1824
a((I0
I1
I2
I3
I4
I7
tp1825
I2
tp1826
a((I0
I1
I2
I3
I4
I5
I6
I7
tp1827
I2
tp1828
a((I0
I1
I2
I3
I4
I7
tp1829
I2
tp1830
a((I0
I1
I2
I3
I4
I7
tp1831
I2
tp1832
a((I0
I1
I2
I3
I4
I5
I6
I7
tp1833
I2
tp1834
a((I0
I1
I2
I3
I4
I7
tp1835
I1
tp1836
a((I0
I1
I2
I3
I4
I7
tp1837
I1
tp1838
a((I0
I1
I2
I3
I4
I7
tp1839
I1
tp1840
a((I0
I1
I2
I3
I4
I5
I7
tp1841
I2
tp1842
a((I0
I1
I2
I3
I4
I5
I6
I7
tp1843
I7
tp1844
a((I0
I1
I2
I3
I4
I5
I6
I7
tp1845
I1
tp1846
a((I0
I1
I2
I3
I4
I5
I6
I7
tp1847
I1
tp1848
a((I0
I1
I2
I3
I4
I7
tp1849
I1
tp1850
a((I0
I1
I2
I3
I4
I7
tp1851
I1
tp1852
a((I0
I1
I2
I3
I4
I5
I6
I7
tp1853
I7
tp1854
a((I0
I1
I2
I3
I4
I7
tp1855
I2
tp1856
a((I0
I1
I2
I3
I4
I7
tp1857
I2
tp1858
a((I0
I1
I2
I3
I4
I7
tp1859
I2
tp1860
a((I0
I1
I2
I3
I4
I7
tp1861
I2
tp1862
a((I0
I1
I2
I3
I4
I7
tp1863
I5
tp1864
a((I0
I1
I2
I3
I4
I7
tp1865
I5
tp1866
a((I0
I1
I2
I3
I4
I7
tp1867
I5
tp1868
a((I0
I1
I2
I3
I4
I7
tp1869
I5
tp1870
a((I0
I1
I2
I3
I4
I7
tp1871
I2
tp1872
a((I0
I1
I2
I3
I4
I5
I6
I7
tp1873
I1
tp1874
a((I0
I1
I2
I3
I4
I7
tp1875
I1
tp1876
a((I0
I1
I2
I3
I4
I5
I7
tp1877
I6
tp1878
a((I0
I1
I2
I3
I4
I7
tp1879
I5
tp1880
a((I0
I1
I2
I3
I4
I7
tp1881
I5
tp1882
a((I0
I1
I2
I3
I4
I7
tp1883
I1
tp1884
a((I0
I1
I2
I3
I4
I7
tp1885
I5
tp1886
a((I0
I1
I2
I3
I4
I5
I6
I7
tp1887
I7
tp1888
a((I0
I1
I2
I3
I4
I5
I6
I7
tp1889
I7
tp1890
a((I0
I1
I2
I3
I4
I7
tp1891
I5
tp1892
a((I0
I1
I2
I3
I4
I5
I6
I7
tp1893
I6
tp1894
a((I0
I1
I2
I3
I4
I7
tp1895
I5
tp1896
a((I0
I1
I2
I3
I4
I5
I7
tp1897
I1
tp1898
a((I0
I1
I2
I3
I4
I5
I7
tp1899
I1
tp1900
a((I0
I1
I2
I3
I4
I5
I6
I7
tp1901
I0
tp1902
a((I0
I1
I2
I3
I4
I5
I6
I7
tp1903
I1
tp1904
a((I0
I1
I2
I3
I4
I5
I6
I7
tp1905
I2
tp1906
a((I0
I1
I2
I3
I4
I5
I6
I7
tp1907
I2
tp1908
a((I0
I1
I2
I3
I4
I5
I6
I7
tp1909
I7
tp1910
a((I0
I1
I2
I3
I4
I5
I6
I7
tp1911
I7
tp1912
a((I0
I1
I2
I3
I4
I5
I6
I7
tp1913
I6
tp1914
a((I0
I1
I2
I3
I4
I5
I6
I7
tp1915
I7
tp1916
a((I0
I1
I2
I3
I4
I5
I6
I7
tp1917
I7
tp1918
a((I0
I1
I2
I3
I4
I7
tp1919
I5
tp1920
a((I0
I1
I2
I3
I4
I5
I6
I7
tp1921
I7
tp1922
a((I0
I1
I2
I3
I4
I5
I6
I7
tp1923
I2
tp1924
a((I0
I1
I2
I3
I4
I5
I6
I7
tp1925
I2
tp1926
a((I0
I1
I2
I3
I4
I5
I6
I7
tp1927
I2
tp1928
a((I0
I1
I2
I3
I4
I5
I6
I7
tp1929
I1
tp1930
a((I0
I1
I2
I3
I4
I5
I6
I7
tp1931
I7
tp1932
a((I0
I1
I2
I3
I4
I5
I6
I7
tp1933
I7
tp1934
a((I0
I1
I2
I3
I4
I5
I6
I7
tp1935
I1
tp1936
a((I0
I1
I2
I3
I4
I5
I6
I7
tp1937
I2
tp1938
a((I0
I1
I2
I3
I4
I7
tp1939
I5
tp1940
a((I0
I1
I2
I3
I4
I7
tp1941
I5
tp1942
a((I0
I1
I2
I3
I4
I7
tp1943
I1
tp1944
a((I0
I1
I2
I3
I4
I7
tp1945
I1
tp1946
a((I0
I1
I2
I3
I4
I5
I6
I7
tp1947
I7
tp1948
a((I0
I1
I2
I3
I4
I5
I7
tp1949
I2
tp1950
a((I0
I1
I2
I3
I4
I5
I7
tp1951
I2
tp1952
a((I0
I1
I2
I3
I4
I7
tp1953
I1
tp1954
a((I0
I1
I2
I3
I4
I5
I6
I7
tp1955
I7
tp1956
a((I0
I1
I2
I3
I4
I5
I6
I7
tp1957
I7
tp1958
a((I0
I1
I2
I3
I4
I7
tp1959
I1
tp1960
a((I0
I1
I2
I3
I4
I5
I6
I7
tp1961
I7
tp1962
a((I0
I1
I2
I3
I4
I5
I6
I7
tp1963
I1
tp1964
a((I0
I1
I2
I3
I4
I7
tp1965
I5
tp1966
a((I0
I1
I2
I3
I4
I5
I6
I7
tp1967
I7
tp1968
a((I0
I1
I2
I3
I4
I5
I6
I7
tp1969
I1
tp1970
a((I0
I1
I2
I3
I4
I5
I6
I7
tp1971
I1
tp1972
a((I0
I1
I2
I3
I4
I5
I6
I7
tp1973
I2
tp1974
a((I0
I1
I2
I3
I4
I5
I6
I7
tp1975
I2
tp1976
a((I0
I1
I2
I3
I4
I5
I6
I7
tp1977
I2
tp1978
a((I0
I1
I2
I3
I4
I5
I6
I7
tp1979
I1
tp1980
a((I0
I1
I2
I3
I4
I5
I6
I7
tp1981
I1
tp1982
a((I0
I1
I2
I3
I4
I7
tp1983
I1
tp1984
a((I0
I1
I2
I3
I4
I7
tp1985
I1
tp1986
a((I0
I1
I2
I3
I4
I5
I6
I7
tp1987
I7
tp1988
a((I0
I1
I2
I3
I4
I5
I6
I7
tp1989
I7
tp1990
a((I0
I1
I2
I3
I4
I5
I6
I7
tp1991
I2
tp1992
a((I0
I1
I2
I3
I4
I5
I6
I7
tp1993
I2
tp1994
a((I0
I1
I2
I3
I4
I5
I6
I7
tp1995
I7
tp1996
a((I0
I1
I2
I3
I4
I5
I6
I7
tp1997
I1
tp1998
a((I0
I1
I2
I3
I4
I5
I6
I7
tp1999
I1
tp2000
a((I0
I1
I2
I3
I4
I5
I6
I7
tp2001
I1
tp2002
a((I0
I1
I2
I3
I4
I5
I6
I7
tp2003
I1
tp2004
a((I0
I1
I2
I3
I4
I5
I6
I7
tp2005
I7
tp2006
a((I0
I1
I2
I3
I4
I5
I6
I7
tp2007
I7
tp2008
a((I0
I1
I2
I3
I4
I5
I6
I7
tp2009
I1
tp2010
a((I0
I1
I2
I3
I4
I7
tp2011
I1
tp2012
a((I0
I1
I2
I3
I4
I5
I6
I7
tp2013
I1
tp2014
a((I0
I1
I2
I3
I4
I7
tp2015
I1
tp2016
a((I0
I1
I2
I3
I4
I7
tp2017
I1
tp2018
a((I0
I1
I2
I3
I4
I5
I6
I7
tp2019
I6
tp2020
a((I0
I1
I2
I3
I4
I5
I6
I7
tp2021
I7
tp2022
a((I0
I1
I2
I3
I4
I5
I6
I7
tp2023
I7
tp2024
a((I0
I1
I2
I3
I4
I5
I6
I7
tp2025
I7
tp2026
a((I0
I1
I2
I3
I4
I5
I6
I7
tp2027
I7
tp2028
a((I0
I1
I2
I3
I4
I5
I6
I7
tp2029
I1
tp2030
a((I0
I1
I2
I3
I4
I7
tp2031
I5
tp2032
a((I0
I1
I2
I3
I4
tp2033
I0
tp2034
a((I0
I1
I2
I3
I4
I7
tp2035
I1
tp2036
a((I0
I1
I2
I3
I4
I7
tp2037
I1
tp2038
a((I0
I1
I2
I3
I4
I5
I6
I7
tp2039
I1
tp2040
a((I0
I1
I2
I3
I4
I7
tp2041
I1
tp2042
a((I0
I1
I2
I3
I4
I5
I6
I7
tp2043
I2
tp2044
a((I0
I1
I2
I3
I4
I5
I6
I7
tp2045
I7
tp2046
a((I0
I1
I2
I3
I4
I7
tp2047
I1
tp2048
a((I0
I1
I2
I3
I4
I5
I6
I7
tp2049
I7
tp2050
a((I0
I1
I2
I3
I4
I7
tp2051
I1
tp2052
a((I0
I1
I2
I3
I4
I7
tp2053
I1
tp2054
a((I0
I1
I2
I3
I4
I5
I6
I7
tp2055
I7
tp2056
a((I0
I1
I2
I3
I4
I5
I6
I7
tp2057
I1
tp2058
a((I0
I1
I2
I3
I4
I5
I6
I7
tp2059
I7
tp2060
a((I0
I1
I2
I3
I4
I5
I6
I7
tp2061
I7
tp2062
a((I0
I1
I2
I3
I4
I5
I6
I7
tp2063
I7
tp2064
a((I0
I1
I2
I3
I4
I5
I7
tp2065
I6
tp2066
a((I0
I1
I2
I3
I4
I5
I6
I7
tp2067
I7
tp2068
a((I0
I1
I2
I3
I4
I7
tp2069
I2
tp2070
a((I0
I1
I2
I3
I4
I7
tp2071
I2
tp2072
a((I0
I1
I2
I3
I4
I7
tp2073
I2
tp2074
a((I0
I1
I2
I3
I4
I5
I6
I7
tp2075
I2
tp2076
a((I0
I1
I2
I3
I4
I5
I7
tp2077
I6
tp2078
a((I0
I1
I2
I3
I4
I5
I6
I7
tp2079
I7
tp2080
a((I0
I1
I2
I3
I4
I7
tp2081
I5
tp2082
a((I0
I1
I2
I3
I4
I7
tp2083
I5
tp2084
a((I0
I1
I2
I3
I4
I5
I7
tp2085
I6
tp2086
a((I0
I1
I2
I3
I4
I5
I6
I7
tp2087
I7
tp2088
a((I0
I1
I2
I3
I4
I5
I6
I7
tp2089
I7
tp2090
a((I0
I1
I2
I3
I4
I5
I6
I7
tp2091
I7
tp2092
a((I0
I1
I2
I3
I4
I5
I7
tp2093
I6
tp2094
a((I0
I1
I2
I3
I4
I7
tp2095
I5
tp2096
a((I0
I1
I2
I3
I4
I7
tp2097
I5
tp2098
a((I0
I1
I2
I3
I4
I7
tp2099
I5
tp2100
a((I0
I1
I2
I3
I4
I7
tp2101
I1
tp2102
a((I0
I1
I2
I3
I4
I7
tp2103
I5
tp2104
a((I0
I1
I2
I3
I4
I5
I6
I7
tp2105
I6
tp2106
a((I0
I1
I2
I3
I4
I5
I6
I7
tp2107
I6
tp2108
a((I0
I1
I2
I3
I4
I7
tp2109
I5
tp2110
a((I0
I1
I2
I3
I4
I5
I6
I7
tp2111
I6
tp2112
a((I0
I1
I2
I3
I4
I5
I6
I7
tp2113
I7
tp2114
a((I0
I1
I2
I3
I4
I5
I6
I7
tp2115
I7
tp2116
a((I0
I1
I2
I3
I4
I5
I6
I7
tp2117
I7
tp2118
a((I0
I1
I2
I3
I4
I5
I6
tp2119
I0
tp2120
a((I0
I1
I2
I3
I4
I5
I6
tp2121
I0
tp2122
a((I0
I1
I2
I3
I4
I7
tp2123
I5
tp2124
a((I0
I1
I2
I3
I4
I5
I6
I7
tp2125
I6
tp2126
a((I0
I1
I2
I3
I4
I5
I6
I7
tp2127
I6
tp2128
a((I0
I1
I2
I3
I4
I7
tp2129
I5
tp2130
a((I0
I1
I2
I3
I4
I7
tp2131
I5
tp2132
a((I0
I1
I2
I3
I4
I5
I6
I7
tp2133
I7
tp2134
a((I0
I1
I2
I3
I4
I7
tp2135
I5
tp2136
a((I0
I1
I2
I3
I4
I7
tp2137
I2
tp2138
a((I0
I1
I2
I3
I4
I5
I6
I7
tp2139
I7
tp2140
a((I0
I1
I2
I3
I4
I7
tp2141
I5
tp2142
a((I1
I2
I3
I4
I7
tp2143
I0
tp2144
a((I1
I2
I3
I4
I7
tp2145
I0
tp2146
a((I0
I1
I2
I3
I4
I5
I6
I7
tp2147
I7
tp2148
a((I0
I1
I2
I3
I4
I5
I6
I7
tp2149
I2
tp2150
a((I0
I1
I2
I3
I4
I7
tp2151
I1
tp2152
a((I0
I1
I2
I3
I4
I7
tp2153
I1
tp2154
a((I0
I1
I2
I3
I4
I7
tp2155
I1
tp2156
a((I0
I1
I2
I3
I4
I5
I6
I7
tp2157
I7
tp2158
a((I0
I1
I2
I3
I4
I5
I6
I7
tp2159
I7
tp2160
a((I0
I1
I2
I3
I4
I5
I7
tp2161
I6
tp2162
a((I0
I1
I2
I3
I4
I7
tp2163
I2
tp2164
a((I0
I1
I2
I3
I4
I7
tp2165
I2
tp2166
a((I0
I1
I2
I3
I4
I7
tp2167
I2
tp2168
a((I0
I1
I2
I3
I4
I5
I6
I7
tp2169
I7
tp2170
a((I0
I1
I2
I3
I4
I5
I6
I7
tp2171
I7
tp2172
a((I0
I1
I2
I3
I4
I5
I6
I7
tp2173
I6
tp2174
a((I0
I1
I2
I3
I4
I5
I6
I7
tp2175
I2
tp2176
a((I0
I1
I2
I3
I4
I5
I7
tp2177
I1
tp2178
a((I0
I1
I2
I3
I4
I5
I6
I7
tp2179
I2
tp2180
a((I0
I1
I2
I3
I4
I5
I6
I7
tp2181
I7
tp2182
a((I0
I1
I2
I3
I4
I5
I6
I7
tp2183
I7
tp2184
a((I0
I1
I2
I3
I4
I5
I6
I7
tp2185
I1
tp2186
a((I0
I1
I2
I3
I4
I5
I6
I7
tp2187
I1
tp2188
a((I0
I1
I2
I3
I4
I5
I7
tp2189
I6
tp2190
a((I0
I1
I2
I3
I4
I5
I6
I7
tp2191
I7
tp2192
a((I0
I1
I2
I3
I4
I5
I6
I7
tp2193
I7
tp2194
a((I1
I2
I3
I4
I7
tp2195
I4
tp2196
a((I0
I1
I2
I3
I4
I5
I6
I7
tp2197
I7
tp2198
a((I0
I1
I2
I3
I4
I5
I6
I7
tp2199
I6
tp2200
a((I0
I1
I2
I3
I4
I5
I6
I7
tp2201
I1
tp2202
a((I0
I1
I2
I3
I4
I5
I6
I7
tp2203
I1
tp2204
a((I0
I1
I2
I3
I4
I5
I6
I7
tp2205
I2
tp2206
a((I0
I1
I2
I3
I4
I5
I6
I7
tp2207
I7
tp2208
a((I0
I1
I2
I3
I4
I7
tp2209
I5
tp2210
a((I0
I1
I2
I3
I4
I7
tp2211
I2
tp2212
a((I0
I1
I2
I3
I4
I5
I6
I7
tp2213
I7
tp2214
a((I0
I1
I2
I3
I4
I5
I6
I7
tp2215
I7
tp2216
a((I0
I1
I2
I3
I4
I5
I6
I7
tp2217
I7
tp2218
a((I0
I1
I2
I3
I4
I7
tp2219
I5
tp2220
a((I0
I1
I2
I3
I4
I5
I6
I7
tp2221
I7
tp2222
a((I0
I1
I2
I3
I4
I7
tp2223
I1
tp2224
a((I0
I1
I2
I3
I4
I7
tp2225
I1
tp2226
a((I0
I1
I2
I3
I4
I5
I6
tp2227
I0
tp2228
a((I0
I1
I2
I3
I4
I5
I6
I7
tp2229
I1
tp2230
a((I0
I1
I2
I3
I4
I5
I6
I7
tp2231
I7
tp2232
a((I0
I1
I2
I3
I4
I5
I6
I7
tp2233
I7
tp2234
a((I0
I1
I2
I3
I4
I5
I6
I7
tp2235
I7
tp2236
a((I1
I2
I3
I4
I7
tp2237
I0
tp2238
a((I1
I2
I3
I4
I7
tp2239
I0
tp2240
a((I0
I1
I2
I3
I4
I5
I6
I7
tp2241
I7
tp2242
a((I0
I1
I2
I3
I4
I5
I6
I7
tp2243
I7
tp2244
a((I0
I1
I2
I3
I4
I5
I6
I7
tp2245
I1
tp2246
a((I0
I1
I2
I3
I4
I5
I6
I7
tp2247
I7
tp2248
a((I0
I1
I2
I3
I4
I7
tp2249
I1
tp2250
a((I0
I1
I2
I3
I4
I7
tp2251
I1
tp2252
a((I0
I1
I2
I3
I4
I7
tp2253
I2
tp2254
a((I0
I1
I2
I3
I4
I7
tp2255
I1
tp2256
a((I0
I1
I2
I3
I4
I7
tp2257
I5
tp2258
a((I0
I1
I2
I3
I4
I5
I6
I7
tp2259
I7
tp2260
a((I0
I1
I2
I3
I4
I5
I6
I7
tp2261
I2
tp2262
a((I0
I1
I2
I3
I4
I5
I6
I7
tp2263
I1
tp2264
a((I0
I1
I2
I3
I4
I5
I6
I7
tp2265
I5
tp2266
a((I0
I1
I2
I3
I4
I5
I6
I7
tp2267
I1
tp2268
a((I0
I1
I2
I3
I4
I5
I6
I7
tp2269
I7
tp2270
a((I0
I1
I2
I3
I4
I5
I6
I7
tp2271
I1
tp2272
a((I1
I2
I3
I4
I7
tp2273
I4
tp2274
a((I1
I2
I3
I4
I5
I6
I7
tp2275
I6
tp2276
a((I0
I1
I2
I3
I4
I5
I6
I7
tp2277
I5
tp2278
a((I0
I1
I2
I3
I4
I5
I6
I7
tp2279
I5
tp2280
a((I1
I2
I3
I4
I7
tp2281
I0
tp2282
a((I1
I2
I3
I4
I5
I6
I7
tp2283
I0
tp2284
a((I1
I2
I3
I4
I5
I7
tp2285
I0
tp2286
a((I1
I2
I3
I4
I7
tp2287
I0
tp2288
a((I1
I2
I3
I4
I5
I6
I7
tp2289
I0
tp2290
a((I1
I2
I3
I4
I5
I7
tp2291
I0
tp2292
a((I1
I2
I3
I4
I5
I6
I7
tp2293
I6
tp2294
a((I1
I2
I3
I4
I5
I6
I7
tp2295
I6
tp2296
a((I0
I1
I2
I3
I4
I5
I7
tp2297
I6
tp2298
a((I0
I1
I2
I3
I4
I5
I6
tp2299
I6
tp2300
a((I0
I1
I2
I3
I4
I5
I6
I7
tp2301
I7
tp2302
a((I0
I1
I2
I3
I4
I7
tp2303
I5
tp2304
a((I0
I1
I2
I3
I4
I5
I6
I7
tp2305
I7
tp2306
a((I0
I1
I2
I3
I4
I5
I6
I7
tp2307
I7
tp2308
a((I0
I1
I2
I3
I4
I5
I7
tp2309
I2
tp2310
a((I0
I1
I2
I3
I4
I5
I7
tp2311
I2
tp2312
a((I0
I1
I2
I3
I4
I5
I7
tp2313
I2
tp2314
a((I0
I1
I2
I3
I4
I7
tp2315
I5
tp2316
a((I0
I1
I2
I3
I4
I5
I6
I7
tp2317
I7
tp2318
a((I0
I1
I2
I3
I4
I5
I7
tp2319
I6
tp2320
a((I0
I1
I2
I3
I4
I7
tp2321
I1
tp2322
a((I0
I1
I2
I3
I4
I7
tp2323
I5
tp2324
a((I0
I1
I2
I3
I4
I5
I6
tp2325
I0
tp2326
a((I0
I1
I2
I3
I4
I7
tp2327
I5
tp2328
a((I0
I1
I2
I3
I4
I7
tp2329
I1
tp2330
a((I0
I1
I2
I3
I4
I7
tp2331
I2
tp2332
a((I0
I1
I2
I3
I4
I5
I7
tp2333
I1
tp2334
a((I0
I1
I2
I3
I4
I7
tp2335
I2
tp2336
a((I0
I1
I2
I3
I4
I5
I7
tp2337
I1
tp2338
a((I0
I1
I2
I3
I4
I7
tp2339
I1
tp2340
a((I0
I1
I2
I3
I4
I5
I7
tp2341
I1
tp2342
a((I0
I1
I2
I3
I4
I7
tp2343
I5
tp2344
a((I0
I1
I2
I3
I4
I7
tp2345
I1
tp2346
a((I0
I1
I2
I3
I4
I5
I7
tp2347
I1
tp2348
a((I0
I1
I2
I3
I4
I5
I7
tp2349
I1
tp2350
a((I0
I1
I2
I3
I4
I5
tp2351
I0
tp2352
a((I0
I1
I2
I3
I4
I7
tp2353
I5
tp2354
a((I0
I1
I2
I3
I4
I5
I6
I7
tp2355
I7
tp2356
a((I1
I2
I3
I4
I5
I6
I7
tp2357
I0
tp2358
a((I0
I1
I2
I3
I4
I5
I6
I7
tp2359
I7
tp2360
a((I1
I2
I3
I4
I5
I6
I7
tp2361
I1
tp2362
a((I0
I1
I2
I3
I4
I5
I6
I7
tp2363
I7
tp2364
a((I0
I1
I2
I3
I4
I5
I6
I7
tp2365
I1
tp2366
a((I0
I1
I2
I3
I4
I5
I6
I7
tp2367
I1
tp2368
a((I0
I1
I2
I3
I4
I7
tp2369
I5
tp2370
a((I0
I1
I2
I3
I4
I7
tp2371
I5
tp2372
a((I0
I1
I2
I3
I4
I5
I6
I7
tp2373
I7
tp2374
a((I0
I1
I2
I3
I4
I7
tp2375
I1
tp2376
a((I0
I1
I2
I3
I4
I7
tp2377
I5
tp2378
a((I0
I1
I2
I3
I4
I7
tp2379
I5
tp2380
a((I0
I1
I2
I3
I4
I7
tp2381
I5
tp2382
a((I0
I1
I2
I3
I4
I5
I6
tp2383
I1
tp2384
a((I0
I1
I2
I3
I4
I5
I6
I7
tp2385
I7
tp2386
a((I0
I1
I2
I3
I4
I7
tp2387
I1
tp2388
a((I0
I1
I2
I3
I4
I5
I6
I7
tp2389
I6
tp2390
a((I0
I1
I2
I3
I4
I7
tp2391
I5
tp2392
a((I0
I1
I2
I3
I4
I7
tp2393
I1
tp2394
a((I0
I1
I2
I3
I4
I5
I6
I7
tp2395
I6
tp2396
a((I0
I1
I2
I3
I4
I5
I6
I7
tp2397
I6
tp2398
a((I0
I1
I2
I3
I4
I7
tp2399
I5
tp2400
a((I0
I1
I2
I3
I4
I5
I6
I7
tp2401
I7
tp2402
a((I0
I1
I2
I3
I4
I5
I6
I7
tp2403
I7
tp2404
a((I0
I1
I2
I3
I4
I5
I6
I7
tp2405
I1
tp2406
a((I0
I1
I2
I3
I4
I5
I6
I7
tp2407
I7
tp2408
a((I0
I1
I2
I3
I4
I5
I6
I7
tp2409
I7
tp2410
a((I0
I1
I2
I3
I4
I5
I6
I7
tp2411
I7
tp2412
a((I0
I1
I2
I3
I4
I5
I6
I7
tp2413
I1
tp2414
a((I0
I1
I2
I3
I4
I5
I6
I7
tp2415
I7
tp2416
a((I0
I1
I2
I3
I4
I5
I6
I7
tp2417
I6
tp2418
a((I0
I1
I2
I3
I4
I5
I6
I7
tp2419
I7
tp2420
a((I0
I1
I2
I3
I4
I5
I6
I7
tp2421
I6
tp2422
a((I0
I1
I2
I3
I4
I5
I6
I7
tp2423
I1
tp2424
a((I0
I1
I2
I3
I4
I5
I6
I7
tp2425
I1
tp2426
a((I0
I1
I2
I3
I4
I5
I6
I7
tp2427
I7
tp2428
a((I0
I1
I2
I3
I4
I5
I6
I7
tp2429
I6
tp2430
a((I0
I1
I2
I3
I4
I5
I6
I7
tp2431
I2
tp2432
a((I0
I1
I2
I3
I4
I5
I6
I7
tp2433
I7
tp2434
a((I0
I1
I2
I3
I4
I5
I6
I7
tp2435
I1
tp2436
a((I0
I1
I2
I3
I4
I5
I6
I7
tp2437
I7
tp2438
a((I0
I1
I2
I3
I4
I5
I6
I7
tp2439
I1
tp2440
a((I0
I1
I2
I3
I4
I5
I6
I7
tp2441
I1
tp2442
a((I0
I1
I2
I3
I4
I5
I6
I7
tp2443
I7
tp2444
a((I0
I1
I2
I3
I4
I5
I7
tp2445
I2
tp2446
a((I0
I1
I2
I3
I4
I5
I6
I7
tp2447
I7
tp2448
a((I0
I1
I2
I3
I4
I5
I6
I7
tp2449
I7
tp2450
a((I0
I1
I2
I3
I4
I5
I6
I7
tp2451
I7
tp2452
a((I0
I1
I2
I3
I4
I5
I6
I7
tp2453
I1
tp2454
a((I0
I1
I2
I3
I4
I5
I6
I7
tp2455
I7
tp2456
a((I0
I1
I2
I3
I4
I5
I6
I7
tp2457
I7
tp2458
a((I0
I1
I2
I3
I4
I5
I6
I7
tp2459
I7
tp2460
a((I0
I1
I2
I3
I4
I7
tp2461
I5
tp2462
a((I0
I1
I2
I3
I4
I5
I6
I7
tp2463
I7
tp2464
a((I0
I1
I2
I3
I4
I7
tp2465
I5
tp2466
a((I0
I1
I2
I3
I4
I5
I6
I7
tp2467
I7
tp2468
a((I0
I1
I2
I3
I4
I5
I6
tp2469
I6
tp2470
a((I0
I1
I2
I3
I4
I5
I6
I7
tp2471
I7
tp2472
a((I0
I1
I2
I3
I4
I5
I6
I7
tp2473
I7
tp2474
a((I0
I1
I2
I3
I4
I5
I6
I7
tp2475
I6
tp2476
a((I0
I1
I2
I3
I4
I7
tp2477
I5
tp2478
a((I0
I1
I2
I3
I4
I5
I6
I7
tp2479
I7
tp2480
a((I0
I1
I2
I3
I4
I5
I6
I7
tp2481
I7
tp2482
a((I0
I1
I2
I3
I4
I5
I6
I7
tp2483
I7
tp2484
a((I0
I1
I2
I3
I4
I5
I7
tp2485
I2
tp2486
a((I0
I1
I2
I3
I4
I5
I6
I7
tp2487
I1
tp2488
a((I0
I1
I2
I3
I4
I7
tp2489
I5
tp2490
a((I0
I1
I2
I3
I4
I5
I6
I7
tp2491
I7
tp2492
a((I0
I1
I2
I3
I4
I7
tp2493
I5
tp2494
a((I0
I1
I2
I3
I4
I5
I6
I7
tp2495
I6
tp2496
a((I0
I1
I2
I3
I4
I5
I6
I7
tp2497
I1
tp2498
a((I0
I1
I2
I3
I4
I5
I6
tp2499
I2
tp2500
a((I0
I1
I2
I3
I4
I5
I6
I7
tp2501
I7
tp2502
a((I0
I1
I2
I3
I4
I5
I6
I7
tp2503
I6
tp2504
a((I0
I1
I2
I3
I4
I5
I6
I7
tp2505
I7
tp2506
a((I0
I1
I2
I3
I4
I7
tp2507
I5
tp2508
a((I0
I1
I2
I3
I4
I7
tp2509
I1
tp2510
a((I0
I1
I2
I3
I4
I7
tp2511
I5
tp2512
a((I0
I1
I2
I3
I4
I7
tp2513
I1
tp2514
a((I0
I1
I2
I3
I4
I5
I6
I7
tp2515
I5
tp2516
a((I0
I1
I2
I3
I4
I5
I6
I7
tp2517
I1
tp2518
a((I0
I1
I2
I3
I4
I5
I6
I7
tp2519
I7
tp2520
a((I0
I1
I2
I3
I4
I5
I6
I7
tp2521
I6
tp2522
a((I0
I1
I2
I3
I4
I5
I6
I7
tp2523
I7
tp2524
a((I0
I1
I2
I3
I4
I7
tp2525
I1
tp2526
a((I0
I1
I2
I3
I4
I7
tp2527
I5
tp2528
a((I0
I1
I2
I3
I4
I5
I6
I7
tp2529
I7
tp2530
a((I0
I1
I2
I3
I4
I7
tp2531
I5
tp2532
a((I0
I1
I2
I3
I4
I7
tp2533
I1
tp2534
a((I0
I1
I2
I3
I4
I7
tp2535
I5
tp2536
a((I0
I1
I2
I3
I4
I5
I6
I7
tp2537
I7
tp2538
a((I0
I1
I2
I3
I4
I7
tp2539
I2
tp2540
a((I0
I1
I2
I3
I4
I7
tp2541
I5
tp2542
a((I0
I1
I2
I3
I4
I5
I6
tp2543
I6
tp2544
a((I0
I1
I2
I3
I4
I5
I6
tp2545
I6
tp2546
a((I0
I1
I2
I3
I4
I7
tp2547
I2
tp2548
a((I0
I1
I2
I3
I4
I7
tp2549
I2
tp2550
a((I0
I1
I2
I3
I4
tp2551
I0
tp2552
a((I0
I1
I2
I3
I4
I7
tp2553
I1
tp2554
a((I0
I1
I2
I3
I4
I7
tp2555
I1
tp2556
a((I0
I1
I2
I3
I4
I7
tp2557
I5
tp2558
a((I0
I1
I2
I3
I4
I5
I6
tp2559
I0
tp2560
a((I0
I1
I2
I3
I4
I5
I6
I7
tp2561
I7
tp2562
a((I0
I1
I2
I3
I4
I5
I6
I7
tp2563
I1
tp2564
a((I0
I1
I2
I3
I4
I7
tp2565
I1
tp2566
a((I0
I1
I2
I3
I4
I5
I6
I7
tp2567
I2
tp2568
a((I0
I1
I2
I3
I4
tp2569
I2
tp2570
a((I0
I1
I2
I3
I4
I5
I6
I7
tp2571
I7
tp2572
a((I0
I1
I2
I3
I4
I7
tp2573
I1
tp2574
a((I0
I1
I2
I3
I4
I5
I6
I7
tp2575
I6
tp2576
a((I0
I1
I2
I3
I4
I5
I6
I7
tp2577
I6
tp2578
a((I0
I1
I2
I3
I4
I5
I6
I7
tp2579
I7
tp2580
a((I0
I1
I2
I3
I4
I7
tp2581
I1
tp2582
a((I0
I1
I2
I3
I4
I5
I6
I7
tp2583
I7
tp2584
a((I0
I1
I2
I3
I4
I5
I6
I7
tp2585
I2
tp2586
a((I0
I1
I2
I3
I4
I5
I6
I7
tp2587
I2
tp2588
a((I0
I1
I2
I3
I4
I7
tp2589
I1
tp2590
a((I0
I1
I2
I3
I4
I7
tp2591
I1
tp2592
a((I0
I1
I2
I3
I4
I5
I6
tp2593
I5
tp2594
a((I0
I1
I2
I3
I4
I5
I6
I7
tp2595
I7
tp2596
a((I0
I1
I2
I3
I4
I5
I6
I7
tp2597
I1
tp2598
a((I0
I1
I2
I3
I4
I7
tp2599
I5
tp2600
a((I0
I1
I2
I3
I4
I5
I6
I7
tp2601
I7
tp2602
a((I0
I1
I2
I3
I4
I7
tp2603
I1
tp2604
a((I0
I1
I2
I3
I4
I7
tp2605
I1
tp2606
a((I0
I1
I2
I3
I4
I7
tp2607
I5
tp2608
a((I0
I1
I2
I3
I4
I5
I7
tp2609
I2
tp2610
a((I0
I1
I2
I3
I4
I5
I7
tp2611
I6
tp2612
a((I0
I1
I2
I3
I4
I7
tp2613
I5
tp2614
a((I0
I1
I2
I3
I4
I5
I6
I7
tp2615
I7
tp2616
a((I0
I1
I2
I3
I4
I5
I6
I7
tp2617
I7
tp2618
a((I0
I1
I2
I3
I4
I5
I6
I7
tp2619
I6
tp2620
a((I0
I1
I2
I3
I4
I5
I6
I7
tp2621
I6
tp2622
a((I0
I1
I2
I3
I4
I5
I6
I7
tp2623
I2
tp2624
a((I0
I1
I2
I3
I4
I5
I6
I7
tp2625
I6
tp2626
a((I0
I1
I2
I3
I4
I5
I6
I7
tp2627
I2
tp2628
a((I0
I1
I2
I3
I4
I5
I6
I7
tp2629
I1
tp2630
a((I0
I1
I2
I3
I4
I5
I6
I7
tp2631
I7
tp2632
a((I0
I1
I2
I3
I4
I5
I6
I7
tp2633
I1
tp2634
a((I0
I1
I2
I3
I4
I5
I6
I7
tp2635
I7
tp2636
a((I0
I1
I2
I3
I4
I7
tp2637
I5
tp2638
a((I0
I1
I2
I3
I4
I5
I6
I7
tp2639
I1
tp2640
a((I0
I1
I2
I3
I4
I7
tp2641
I5
tp2642
a((I0
I1
I2
I3
I4
I5
I6
I7
tp2643
I7
tp2644
a((I0
I1
I2
I3
I4
I5
I6
I7
tp2645
I7
tp2646
a((I0
I1
I2
I3
I4
I7
tp2647
I5
tp2648
a((I0
I1
I2
I3
I4
I5
I6
I7
tp2649
I7
tp2650
a((I0
I1
I2
I3
I4
I5
I6
I7
tp2651
I1
tp2652
a((I0
I1
I2
I3
I4
I5
I6
I7
tp2653
I1
tp2654
a((I0
I1
I2
I3
I4
I5
I7
tp2655
I6
tp2656
a((I0
I1
I2
I3
I4
I5
I6
I7
tp2657
I2
tp2658
a((I0
I1
I2
I3
I4
I5
I6
I7
tp2659
I7
tp2660
a((I0
I1
I2
I3
I4
I5
I6
I7
tp2661
I5
tp2662
a((I0
I1
I2
I3
I4
I5
I6
I7
tp2663
I7
tp2664
a((I0
I1
I2
I3
I4
I5
I6
I7
tp2665
I6
tp2666
a((I0
I1
I2
I3
I4
I7
tp2667
I5
tp2668
a((I0
I1
I2
I3
I4
I5
I6
I7
tp2669
I1
tp2670
a((I0
I1
I2
I3
I4
I5
I6
I7
tp2671
I7
tp2672
a((I0
I1
I2
I3
I4
I7
tp2673
I5
tp2674
a((I0
I1
I2
I3
I4
I5
I6
I7
tp2675
I7
tp2676
a((I0
I1
I2
I3
I4
I5
I6
I7
tp2677
I6
tp2678
a((I0
I1
I2
I3
I4
I5
I6
I7
tp2679
I1
tp2680
a((I0
I1
I2
I3
I4
I5
I6
I7
tp2681
I7
tp2682
a((I0
I1
I2
I3
I4
I5
I6
I7
tp2683
I1
tp2684
a((I0
I1
I2
I3
I4
I7
tp2685
I1
tp2686
a((I0
I1
I2
I3
I4
I5
I6
I7
tp2687
I1
tp2688
a((I0
I1
I2
I3
I4
I7
tp2689
I1
tp2690
a((I0
I1
I2
I3
I4
I5
I6
I7
tp2691
I7
tp2692
a((I0
I1
I2
I3
I4
I5
I6
I7
tp2693
I2
tp2694
a((I0
I1
I2
I3
I4
I5
I6
I7
tp2695
I7
tp2696
a((I0
I1
I2
I3
I4
I7
tp2697
I5
tp2698
a((I0
I1
I2
I3
I4
I5
I6
I7
tp2699
I2
tp2700
a((I0
I1
I2
I3
I4
I5
I6
I7
tp2701
I2
tp2702
a((I0
I1
I2
I3
I4
I5
I6
I7
tp2703
I2
tp2704
a((I0
I1
I2
I3
I4
I5
I6
I7
tp2705
I7
tp2706
a((I0
I1
I2
I3
I4
I7
tp2707
I5
tp2708
a((I0
I1
I2
I3
I4
I7
tp2709
I5
tp2710
a((I0
I1
I2
I3
I4
I5
I6
I7
tp2711
I7
tp2712
a((I0
I1
I2
I3
I4
I5
I6
I7
tp2713
I7
tp2714
a((I0
I1
I2
I3
I4
I7
tp2715
I5
tp2716
a((I0
I1
I2
I3
I4
I5
I6
I7
tp2717
I7
tp2718
a((I0
I1
I2
I3
I4
I7
tp2719
I1
tp2720
a((I0
I1
I2
I3
I4
I5
I6
I7
tp2721
I1
tp2722
a((I0
I1
I2
I3
I4
I7
tp2723
I1
tp2724
a((I0
I1
I2
I3
I4
I7
tp2725
I5
tp2726
a((I0
I1
I2
I3
I4
I7
tp2727
I1
tp2728
a((I0
I1
I2
I3
I4
I7
tp2729
I1
tp2730
a((I0
I1
I2
I3
I4
I7
tp2731
I1
tp2732
a((I0
I1
I2
I3
I4
I5
I6
I7
tp2733
I1
tp2734
a((I0
I1
I2
I3
I4
I7
tp2735
I2
tp2736
a((I0
I1
I2
I3
I4
I5
I6
tp2737
I6
tp2738
a((I0
I1
I2
I3
I4
I7
tp2739
I5
tp2740
a((I0
I1
I2
I3
I4
I7
tp2741
I5
tp2742
a((I0
I1
I2
I3
I4
I5
I6
I7
tp2743
I1
tp2744
a((I0
I1
I2
I3
I4
I5
I6
I7
tp2745
I1
tp2746
a((I0
I1
I2
I3
I4
I5
I6
I7
tp2747
I1
tp2748
a((I0
I1
I2
I3
I4
I7
tp2749
I5
tp2750
a((I0
I1
I2
I3
I4
I5
I6
I7
tp2751
I6
tp2752
a((I0
I1
I2
I3
I4
I5
I6
I7
tp2753
I6
tp2754
a((I0
I1
I2
I3
I4
I5
I6
I7
tp2755
I6
tp2756
a((I0
I1
I2
I3
I4
I5
I6
I7
tp2757
I6
tp2758
a((I0
I1
I2
I3
I4
I5
I6
tp2759
I1
tp2760
a((I0
I1
I2
I3
I4
I5
I6
I7
tp2761
I7
tp2762
a((I0
I1
I2
I3
I4
I7
tp2763
I1
tp2764
a((I0
I1
I2
I3
I4
I5
I6
I7
tp2765
I7
tp2766
a((I0
I1
I2
I3
I4
I7
tp2767
I5
tp2768
a((I0
I1
I2
I3
I4
I5
I6
I7
tp2769
I7
tp2770
a((I0
I1
I2
I3
I4
I7
tp2771
I1
tp2772
a((I0
I1
I2
I3
I4
I7
tp2773
I5
tp2774
a((I0
I1
I2
I3
I4
I7
tp2775
I5
tp2776
a((I0
I1
I2
I3
I4
I7
tp2777
I1
tp2778
a((I0
I1
I2
I3
I4
I7
tp2779
I1
tp2780
a((I0
I1
I2
I3
I4
I5
I6
I7
tp2781
I1
tp2782
a((I0
I1
I2
I3
I4
I5
I6
I7
tp2783
I1
tp2784
a((I0
I1
I2
I3
I4
I5
I6
I7
tp2785
I2
tp2786
a((I0
I1
I2
I3
I4
I7
tp2787
I5
tp2788
a((I0
I1
I2
I3
I4
I5
I6
I7
tp2789
I7
tp2790
a((I0
I1
I2
I3
I4
I5
I6
I7
tp2791
I7
tp2792
a((I0
I1
I2
I3
I4
I5
I6
I7
tp2793
I1
tp2794
a((I0
I1
I2
I3
I4
I7
tp2795
I0
tp2796
a((I0
I1
I2
I3
I4
I5
I6
I7
tp2797
I7
tp2798
a((I0
I1
I2
I3
I4
I7
tp2799
I1
tp2800
a((I0
I1
I2
I3
I4
I7
tp2801
I5
tp2802
a((I0
I1
I2
I3
I4
I5
I6
I7
tp2803
I6
tp2804
a((I0
I1
I2
I3
I4
I5
I6
I7
tp2805
I6
tp2806
a((I0
I1
I2
I3
I4
I5
I6
I7
tp2807
I2
tp2808
a((I0
I1
I2
I3
I4
I5
I6
I7
tp2809
I1
tp2810
a((I0
I1
I2
I3
I4
I7
tp2811
I5
tp2812
a((I0
I1
I2
I3
I4
I5
I6
I7
tp2813
I7
tp2814
a((I0
I1
I2
I3
I4
I5
I6
I7
tp2815
I7
tp2816
a((I0
I1
I2
I3
I4
I7
tp2817
I5
tp2818
a((I0
I1
I2
I3
I4
I5
I6
I7
tp2819
I7
tp2820
a((I0
I1
I2
I3
I4
I5
I6
I7
tp2821
I1
tp2822
a((I0
I1
I2
I3
I4
I5
I6
I7
tp2823
I7
tp2824
a((I0
I1
I2
I3
I4
I5
I6
I7
tp2825
I1
tp2826
a((I0
I1
I2
I3
I4
I7
tp2827
I5
tp2828
a((I0
I1
I2
I3
I4
I5
I6
I7
tp2829
I1
tp2830
a((I0
I1
I2
I3
I4
I5
I6
I7
tp2831
I1
tp2832
a((I0
I1
I2
I3
I4
I5
I6
I7
tp2833
I7
tp2834
a((I0
I1
I2
I3
I4
I7
tp2835
I5
tp2836
a((I0
I1
I2
I3
I4
I5
I6
I7
tp2837
I7
tp2838
a((I0
I1
I2
I3
I4
I5
I6
I7
tp2839
I1
tp2840
a((I0
I1
I2
I3
I4
I5
I6
I7
tp2841
I1
tp2842
a((I0
I1
I2
I3
I4
I5
I6
I7
tp2843
I1
tp2844
a((I0
I1
I2
I3
I4
I7
tp2845
I1
tp2846
a((I0
I1
I2
I3
I4
I7
tp2847
I1
tp2848
a((I0
I1
I2
I3
I4
I7
tp2849
I1
tp2850
a((I0
I1
I2
I3
I4
I7
tp2851
I1
tp2852
a((I0
I1
I2
I3
I4
I5
I6
I7
tp2853
I7
tp2854
a((I0
I1
I2
I3
I4
I7
tp2855
I5
tp2856
a((I0
I1
I2
I3
I4
I5
I6
I7
tp2857
I1
tp2858
a((I0
I1
I2
I3
I4
I5
I6
I7
tp2859
I1
tp2860
a((I0
I1
I2
I3
I4
I5
I6
I7
tp2861
I7
tp2862
a((I0
I1
I2
I3
I4
I7
tp2863
I1
tp2864
a((I0
I1
I2
I3
I4
I7
tp2865
I1
tp2866
a((I0
I1
I2
I3
I4
I7
tp2867
I5
tp2868
a((I0
I1
I2
I3
I4
I5
I6
I7
tp2869
I7
tp2870
a((I0
I1
I2
I3
I4
I5
I6
I7
tp2871
I7
tp2872
a((I0
I1
I2
I3
I4
I5
I6
I7
tp2873
I1
tp2874
a((I0
I1
I2
I3
I4
I5
I6
I7
tp2875
I1
tp2876
a((I0
I1
I2
I3
I4
I5
I6
I7
tp2877
I1
tp2878
a((I0
I1
I2
I3
I4
I5
I6
I7
tp2879
I6
tp2880
a((I0
I1
I2
I3
I4
I7
tp2881
I5
tp2882
a((I0
I1
I2
I3
I4
I5
I6
I7
tp2883
I6
tp2884
a((I0
I1
I2
I3
I4
I5
I6
I7
tp2885
I1
tp2886
a((I0
I1
I2
I3
I4
I5
I6
I7
tp2887
I7
tp2888
a((I0
I1
I2
I3
I4
I7
tp2889
I5
tp2890
a((I0
I1
I2
I3
I4
I5
I6
I7
tp2891
I7
tp2892
a((I0
I1
I2
I3
I4
I5
I7
tp2893
I1
tp2894
a((I0
I1
I2
I3
I4
I5
I6
I7
tp2895
I1
tp2896
a((I0
I1
I2
I3
I4
I5
I6
I7
tp2897
I1
tp2898
a((I0
I1
I2
I3
I4
I5
I6
I7
tp2899
I7
tp2900
a((I0
I1
I2
I3
I4
I5
I7
tp2901
I6
tp2902
a((I0
I1
I2
I3
I4
I5
I6
I7
tp2903
I7
tp2904
a((I0
I1
I2
I3
I4
I5
I6
I7
tp2905
I7
tp2906
a((I0
I1
I2
I3
I4
I5
I6
I7
tp2907
I7
tp2908
a((I0
I1
I2
I3
I4
I5
I6
I7
tp2909
I1
tp2910
a((I0
I1
I2
I3
I4
I5
I6
I7
tp2911
I1
tp2912
a((I0
I1
I2
I3
I4
I5
I6
I7
tp2913
I1
tp2914
a((I0
I1
I2
I3
I4
I5
I6
I7
tp2915
I1
tp2916
a((I0
I1
I2
I3
I4
I5
I6
I7
tp2917
I7
tp2918
a((I0
I1
I2
I3
I4
I5
I6
I7
tp2919
I7
tp2920
a((I0
I1
I2
I3
I4
I7
tp2921
I5
tp2922
a((I0
I1
I2
I3
I4
I5
I6
I7
tp2923
I7
tp2924
a((I0
I1
I2
I3
I4
I7
tp2925
I5
tp2926
a((I0
I1
I2
I3
I4
I7
tp2927
I5
tp2928
a((I0
I1
I2
I3
I4
I7
tp2929
I2
tp2930
a((I0
I1
I2
I3
I4
I5
I6
I7
tp2931
I1
tp2932
a((I0
I1
I2
I3
I4
I5
I6
I7
tp2933
I1
tp2934
a((I0
I1
I2
I3
I4
I5
I6
I7
tp2935
I7
tp2936
a((I0
I1
I2
I3
I4
I7
tp2937
I5
tp2938
a((I0
I1
I2
I3
I4
I5
I6
I7
tp2939
I7
tp2940
a((I0
I1
I2
I3
I4
I7
tp2941
I5
tp2942
a((I0
I1
I2
I3
I4
I5
I6
I7
tp2943
I7
tp2944
a((I0
I1
I2
I3
I4
I5
I6
I7
tp2945
I7
tp2946
a((I0
I1
I2
I3
I4
I7
tp2947
I5
tp2948
a((I0
I1
I2
I3
I4
I5
I6
I7
tp2949
I1
tp2950
a((I0
I1
I2
I3
I4
I5
I6
I7
tp2951
I7
tp2952
a((I0
I1
I2
I3
I4
I7
tp2953
I5
tp2954
a((I0
I1
I2
I3
I4
I5
I6
I7
tp2955
I1
tp2956
a((I0
I1
I2
I3
I4
I5
I6
I7
tp2957
I1
tp2958
a((I0
I1
I2
I3
I4
I5
I6
I7
tp2959
I7
tp2960
a((I0
I1
I2
I3
I4
I5
I6
I7
tp2961
I7
tp2962
a((I0
I1
I2
I3
I4
I5
I6
I7
tp2963
I2
tp2964
a((I0
I1
I2
I3
I4
I5
I6
I7
tp2965
I2
tp2966
a((I0
I1
I2
I3
I4
I5
I7
tp2967
I6
tp2968
a((I0
I1
I2
I3
I4
I5
I6
I7
tp2969
I7
tp2970
a((I0
I1
I2
I3
I4
I5
I6
I7
tp2971
I7
tp2972
a((I0
I1
I2
I3
I4
I5
I6
I7
tp2973
I2
tp2974
a((I0
I1
I2
I3
I4
I5
I6
I7
tp2975
I2
tp2976
a((I0
I1
I2
I3
I4
I7
tp2977
I1
tp2978
a((I0
I1
I2
I3
I4
I5
I6
I7
tp2979
I7
tp2980
a((I0
I1
I2
I3
I4
I5
I6
I7
tp2981
I1
tp2982
a((I0
I1
I2
I3
I4
I5
I6
I7
tp2983
I7
tp2984
a((I0
I1
I2
I3
I4
I5
I6
I7
tp2985
I7
tp2986
a((I0
I1
I2
I3
I4
I5
I6
I7
tp2987
I7
tp2988
a((I0
I1
I2
I3
I4
I5
I6
I7
tp2989
I7
tp2990
a((I0
I1
I2
I3
I4
I5
I6
I7
tp2991
I7
tp2992
a((I0
I1
I2
I3
I4
I5
I6
I7
tp2993
I7
tp2994
a((I0
I1
I2
I3
I4
I5
I6
I7
tp2995
I7
tp2996
a((I0
I1
I2
I3
I4
I5
I6
I7
tp2997
I7
tp2998
a((I0
I1
I2
I3
I4
I5
I6
I7
tp2999
I7
tp3000
a((I0
I1
I2
I3
I4
I7
tp3001
I5
tp3002
a((I0
I1
I2
I3
I4
I5
I6
I7
tp3003
I7
tp3004
a((I0
I1
I2
I3
I4
I5
I6
I7
tp3005
I7
tp3006
a((I0
I1
I2
I3
I4
I7
tp3007
I5
tp3008
a((I0
I1
I2
I3
I4
I5
I6
I7
tp3009
I7
tp3010
a((I0
I1
I2
I3
I4
I5
I7
tp3011
I6
tp3012
a((I0
I1
I2
I3
I4
I5
I6
I7
tp3013
I6
tp3014
a((I0
I1
I2
I3
I4
I5
I6
I7
tp3015
I1
tp3016
a((I0
I1
I2
I3
I4
I5
I6
I7
tp3017
I7
tp3018
a((I0
I1
I2
I3
I4
I7
tp3019
I5
tp3020
a((I0
I1
I2
I3
I4
I7
tp3021
I1
tp3022
a((I0
I1
I2
I3
I4
I7
tp3023
I1
tp3024
a((I0
I1
I2
I3
I4
I5
I7
tp3025
I2
tp3026
a((I0
I1
I2
I3
I4
I5
I7
tp3027
I2
tp3028
a((I0
I1
I2
I3
I4
I7
tp3029
I5
tp3030
a((I0
I1
I2
I3
I4
I5
I6
I7
tp3031
I1
tp3032
a((I0
I1
I2
I3
I4
I5
I6
I7
tp3033
I1
tp3034
a((I0
I1
I2
I3
I4
I5
I6
I7
tp3035
I1
tp3036
a((I0
I1
I2
I3
I4
I5
I6
I7
tp3037
I1
tp3038
a((I0
I1
I2
I3
I4
I5
I6
I7
tp3039
I1
tp3040
a((I0
I1
I2
I3
I4
I5
I7
tp3041
I6
tp3042
a((I0
I1
I2
I3
I4
I5
I7
tp3043
I2
tp3044
a((I0
I1
I2
I3
I4
I5
I7
tp3045
I2
tp3046
a((I0
I1
I2
I3
I4
I5
I6
I7
tp3047
I1
tp3048
a((I0
I1
I2
I3
I4
I5
I6
I7
tp3049
I6
tp3050
a((I0
I1
I2
I3
I4
I5
I6
I7
tp3051
I1
tp3052
a((I0
I1
I2
I3
I4
I5
I6
I7
tp3053
I7
tp3054
a((I0
I1
I2
I3
I4
I5
I6
I7
tp3055
I7
tp3056
a((I0
I1
I2
I3
I4
I5
I6
I7
tp3057
I7
tp3058
a((I0
I1
I2
I3
I4
I5
I6
I7
tp3059
I1
tp3060
a((I0
I1
I2
I3
I4
I5
I6
I7
tp3061
I1
tp3062
a((I0
I1
I2
I3
I4
I5
I6
I7
tp3063
I2
tp3064
a((I0
I1
I2
I3
I4
I5
I6
I7
tp3065
I2
tp3066
a((I0
I1
I2
I3
I4
I5
I6
I7
tp3067
I0
tp3068
a((I0
I1
I2
I3
I4
I5
I6
I7
tp3069
I1
tp3070
a((I0
I1
I2
I3
I4
I7
tp3071
I1
tp3072
a((I0
I1
I2
I3
I4
I7
tp3073
I1
tp3074
a((I0
I1
I2
I3
I4
I5
I6
I7
tp3075
I1
tp3076
a((I0
I1
I2
I3
I4
I5
I6
I7
tp3077
I1
tp3078
a((I0
I1
I2
I3
I4
I7
tp3079
I5
tp3080
a((I0
I1
I2
I3
I4
I7
tp3081
I5
tp3082
a((I0
I1
I2
I3
I4
I7
tp3083
I5
tp3084
a((I0
I1
I2
I3
I4
I5
I6
I7
tp3085
I7
tp3086
a((I0
I1
I2
I3
I4
I5
I6
I7
tp3087
I7
tp3088
a((I0
I1
I2
I3
I4
I5
I6
I7
tp3089
I7
tp3090
a((I0
I1
I2
I3
I4
I5
I6
I7
tp3091
I7
tp3092
a((I0
I1
I2
I3
I4
I5
I6
I7
tp3093
I5
tp3094
a((I0
I1
I2
I3
I4
I5
I6
I7
tp3095
I6
tp3096
a((I0
I1
I2
I3
I4
I5
I6
I7
tp3097
I1
tp3098
a((I0
I1
I2
I3
I4
I5
I6
I7
tp3099
I7
tp3100
a((I0
I1
I2
I3
I4
I5
I6
I7
tp3101
I7
tp3102
a((I0
I1
I2
I3
I4
I5
I6
I7
tp3103
I7
tp3104
a((I0
I1
I2
I3
I4
I5
I6
I7
tp3105
I2
tp3106
a((I0
I1
I2
I3
I4
I5
I6
I7
tp3107
I7
tp3108
a((I0
I1
I2
I3
I4
I5
I6
I7
tp3109
I6
tp3110
a((I0
I1
I2
I3
I4
I5
I6
I7
tp3111
I7
tp3112
a((I0
I1
I2
I3
I4
I5
I6
I7
tp3113
I6
tp3114
a((I0
I1
I2
I3
I4
I5
I6
I7
tp3115
I7
tp3116
a((I0
I1
I2
I3
I4
I5
I6
I7
tp3117
I6
tp3118
a((I0
I1
I2
I3
I4
I5
I6
I7
tp3119
I6
tp3120
a((I0
I1
I2
I3
I4
I7
tp3121
I5
tp3122
a((I0
I1
I2
I3
I4
I7
tp3123
I5
tp3124
a((I0
I1
I2
I3
I4
I5
I6
I7
tp3125
I1
tp3126
a((I0
I1
I2
I3
I4
I5
I6
I7
tp3127
I5
tp3128
a((I0
I1
I2
I3
I4
I5
I6
I7
tp3129
I7
tp3130
a((I0
I1
I2
I3
I4
I5
I6
I7
tp3131
I7
tp3132
a((I0
I1
I2
I3
I4
I5
I6
I7
tp3133
I7
tp3134
a((I0
I1
I2
I3
I4
I5
I6
I7
tp3135
I7
tp3136
a((I0
I1
I2
I3
I4
I7
tp3137
I1
tp3138
a((I0
I1
I2
I3
I4
I7
tp3139
I2
tp3140
a((I1
I2
I3
I4
I7
tp3141
I4
tp3142
a((I1
I2
I3
I4
I5
I6
I7
tp3143
I6
tp3144
a((I0
I1
I2
I3
I4
I5
I6
I7
tp3145
I7
tp3146
a((I0
I1
I2
I3
I4
I7
tp3147
I1
tp3148
a((I1
I2
I3
I4
I7
tp3149
I1
tp3150
a((I1
I2
I3
I4
I7
tp3151
I1
tp3152
a((I0
I1
I2
I3
I4
I7
tp3153
I5
tp3154
a((I0
I1
I2
I3
I4
I5
I6
I7
tp3155
I7
tp3156
a((I1
I2
I3
I4
I5
I6
I7
tp3157
I6
tp3158
a((I0
I1
I2
I3
I4
I5
I6
I7
tp3159
I7
tp3160
a((I0
I1
I2
I3
I4
I5
I6
I7
tp3161
I2
tp3162
a((I0
I1
I2
I3
I4
I5
I6
I7
tp3163
I7
tp3164
a((I0
I1
I2
I3
I4
I5
I6
I7
tp3165
I5
tp3166
a((I0
I1
I2
I3
I4
I5
I6
I7
tp3167
I1
tp3168
a((I0
I1
I2
I3
I4
I5
I6
I7
tp3169
I1
tp3170
a((I0
I1
I2
I3
I4
I5
I6
I7
tp3171
I7
tp3172
a((I0
I1
I2
I3
I4
I5
I6
I7
tp3173
I7
tp3174
a((I0
I1
I2
I3
I4
I5
I6
I7
tp3175
I7
tp3176
a((I0
I1
I2
I3
I4
I5
I6
I7
tp3177
I7
tp3178
a((I0
I1
I2
I3
I4
I5
I6
I7
tp3179
I7
tp3180
a((I0
I1
I2
I3
I4
I5
I7
tp3181
I6
tp3182
a((I0
I1
I2
I3
I4
I5
I7
tp3183
I6
tp3184
a((I0
I1
I2
I3
I4
I5
I6
I7
tp3185
I6
tp3186
a((I0
I1
I2
I3
I4
I5
I6
I7
tp3187
I6
tp3188
a((I0
I1
I2
I3
I4
I5
I6
I7
tp3189
I6
tp3190
a((I0
I1
I2
I3
I4
I7
tp3191
I2
tp3192
a((I0
I1
I2
I3
I4
I7
tp3193
I5
tp3194
a((I0
I1
I2
I3
I4
I5
I6
I7
tp3195
I7
tp3196
a((I0
I1
I2
I3
I4
I5
I7
tp3197
I6
tp3198
a((I0
I1
I2
I3
I4
I5
I6
I7
tp3199
I2
tp3200
a((I0
I1
I2
I3
I4
I5
I6
I7
tp3201
I7
tp3202
a((I0
I1
I2
I3
I4
I5
I6
I7
tp3203
I2
tp3204
a((I0
I1
I2
I3
I4
I5
I6
I7
tp3205
I5
tp3206
a((I0
I1
I2
I3
I4
I5
I6
I7
tp3207
I7
tp3208
a((I0
I1
I2
I3
I4
I5
I6
I7
tp3209
I7
tp3210
a((I0
I1
I2
I3
I4
I5
I7
tp3211
I6
tp3212
a((I0
I1
I2
I3
I4
I5
I6
I7
tp3213
I7
tp3214
a((I0
I1
I2
I3
I4
I7
tp3215
I2
tp3216
a((I0
I1
I2
I3
I4
I7
tp3217
I2
tp3218
a((I0
I1
I2
I3
I4
I7
tp3219
I2
tp3220
a((I0
I1
I2
I3
I4
I7
tp3221
I5
tp3222
a((I0
I1
I2
I3
I4
I5
I6
I7
tp3223
I7
tp3224
a((I0
I1
I2
I3
I4
I7
tp3225
I5
tp3226
a((I0
I1
I2
I3
I4
I7
tp3227
I5
tp3228
a((I0
I1
I2
I3
I4
I5
I6
I7
tp3229
I7
tp3230
a((I1
I2
I3
I4
I5
I6
I7
tp3231
I0
tp3232
a((I0
I1
I2
I3
I4
I5
I6
I7
tp3233
I7
tp3234
a((I0
I1
I2
I3
I4
I5
I6
I7
tp3235
I2
tp3236
a((I0
I1
I2
I3
I4
I5
I6
I7
tp3237
I2
tp3238
a((I0
I1
I2
I3
I4
I5
I6
I7
tp3239
I2
tp3240
a((I0
I1
I2
I3
I4
I5
I6
I7
tp3241
I7
tp3242
a((I0
I1
I2
I3
I4
I5
I6
I7
tp3243
I7
tp3244
a((I0
I1
I2
I3
I4
I5
I6
I7
tp3245
I7
tp3246
a((I0
I1
I2
I3
I4
I5
I6
I7
tp3247
I7
tp3248
a((I0
I1
I2
I3
I4
I5
I6
I7
tp3249
I7
tp3250
a((I0
I1
I2
I3
I4
I7
tp3251
I5
tp3252
a((I0
I1
I2
I3
I4
I5
I6
I7
tp3253
I7
tp3254
a((I0
I1
I2
I3
I4
I5
I6
I7
tp3255
I1
tp3256
a((I0
I1
I2
I3
I4
I7
tp3257
I1
tp3258
a((I0
I1
I2
I3
I4
I5
I6
I7
tp3259
I7
tp3260
a((I0
I1
I2
I3
I4
I5
I6
I7
tp3261
I7
tp3262
a((I0
I1
I2
I3
I4
I5
I6
I7
tp3263
I6
tp3264
a((I0
I1
I2
I3
I4
I5
I6
I7
tp3265
I7
tp3266
a((I0
I1
I2
I3
I4
I5
I6
I7
tp3267
I7
tp3268
a((I0
I1
I2
I3
I4
I5
I6
I7
tp3269
I2
tp3270
a((I0
I1
I2
I3
I4
I5
I6
I7
tp3271
I7
tp3272
a((I0
I1
I2
I3
I4
I5
I6
tp3273
I6
tp3274
a((I0
I1
I2
I3
I4
I5
I6
I7
tp3275
I7
tp3276
a((I0
I1
I2
I3
I4
I5
I6
I7
tp3277
I7
tp3278
a((I0
I1
I2
I3
I4
I5
I6
I7
tp3279
I1
tp3280
a((I0
I1
I2
I3
I4
I5
I7
tp3281
I1
tp3282
a((I0
I1
I2
I3
I4
I5
I6
I7
tp3283
I2
tp3284
a((I0
I1
I2
I3
I4
I5
I6
I7
tp3285
I2
tp3286
a((I0
I1
I2
I3
I4
I5
I6
I7
tp3287
I7
tp3288
a((I0
I1
I2
I3
I4
I5
I6
I7
tp3289
I7
tp3290
a((I0
I1
I2
I3
I4
I5
I6
I7
tp3291
I7
tp3292
a((I0
I1
I2
I3
I4
I7
tp3293
I1
tp3294
a((I0
I1
I2
I3
I4
I5
I6
I7
tp3295
I7
tp3296
a((I0
I1
I2
I3
I4
I7
tp3297
I5
tp3298
a((I0
I1
I2
I3
I4
I7
tp3299
I5
tp3300
a((I0
I1
I2
I3
I4
I5
I7
tp3301
I1
tp3302
a((I0
I1
I2
I3
I4
I5
I7
tp3303
I1
tp3304
a((I0
I1
I2
I3
I4
I5
I6
I7
tp3305
I7
tp3306
a((I0
I1
I2
I3
I4
I5
I7
tp3307
I6
tp3308
a((I0
I1
I2
I3
I4
I5
I6
I7
tp3309
I7
tp3310
a((I0
I1
I2
I3
I4
I5
I6
I7
tp3311
I7
tp3312
a((I0
I1
I2
I3
I4
I7
tp3313
I5
tp3314
a((I0
I1
I2
I3
I4
I5
I6
I7
tp3315
I2
tp3316
a((I0
I1
I2
I3
I4
I5
I6
I7
tp3317
I1
tp3318
a((I0
I1
I2
I3
I4
I7
tp3319
I5
tp3320
a((I0
I1
I2
I3
I4
I5
I6
I7
tp3321
I7
tp3322
a((I0
I1
I2
I3
I4
I7
tp3323
I5
tp3324
a((I0
I1
I2
I3
I4
I7
tp3325
I1
tp3326
a((I0
I1
I2
I3
I4
I7
tp3327
I1
tp3328
a((I0
I1
I2
I3
I4
I5
I6
I7
tp3329
I7
tp3330
a((I0
I1
I2
I3
I4
I5
I6
I7
tp3331
I7
tp3332
a((I0
I1
I2
I3
I4
I7
tp3333
I5
tp3334
a((I0
I1
I2
I3
I4
I7
tp3335
I5
tp3336
a((I0
I1
I2
I3
I4
I5
I6
I7
tp3337
I7
tp3338
a((I0
I1
I2
I3
I4
I5
I6
I7
tp3339
I5
tp3340
a((I0
I1
I2
I3
I4
I7
tp3341
I5
tp3342
a((I0
I1
I2
I3
I4
I5
I6
I7
tp3343
I7
tp3344
a((I0
I1
I2
I3
I4
I7
tp3345
I5
tp3346
a((I0
I1
I2
I3
I4
I5
I6
I7
tp3347
I1
tp3348
a((I0
I1
I2
I3
I4
I5
I6
I7
tp3349
I1
tp3350
a((I1
I2
I3
I4
I7
tp3351
I1
tp3352
a((I1
I2
I3
I4
I7
tp3353
I0
tp3354
a((I0
I1
I2
I3
I4
I7
tp3355
I5
tp3356
a((I0
I1
I2
I3
I4
I5
I6
I7
tp3357
I7
tp3358
a((I0
I1
I2
I3
I4
I5
I6
I7
tp3359
I7
tp3360
a((I0
I1
I2
I3
I4
I5
I6
I7
tp3361
I7
tp3362
a((I0
I1
I2
I3
I4
I7
tp3363
I2
tp3364
a((I0
I1
I2
I3
I4
I7
tp3365
I5
tp3366
a((I0
I1
I2
I3
I4
I5
I6
I7
tp3367
I7
tp3368
a((I0
I1
I2
I3
I4
I5
I6
I7
tp3369
I7
tp3370
a((I0
I1
I2
I3
I4
I5
I6
I7
tp3371
I7
tp3372
a((I0
I1
I2
I3
I4
I5
I6
I7
tp3373
I7
tp3374
a((I0
I1
I2
I3
I4
I5
I6
I7
tp3375
I7
tp3376
a((I0
I1
I2
I3
I4
I7
tp3377
I1
tp3378
a((I0
I1
I2
I3
I4
I7
tp3379
I1
tp3380
a((I0
I1
I2
I3
I4
I5
I6
I7
tp3381
I7
tp3382
a((I0
I1
I2
I3
I4
I5
I6
I7
tp3383
I7
tp3384
a((I0
I1
I2
I3
I4
I5
I6
I7
tp3385
I7
tp3386
a((I0
I1
I2
I3
I4
I5
I6
I7
tp3387
I2
tp3388
a((I0
I1
I2
I3
I4
I5
I6
I7
tp3389
I2
tp3390
a((I0
I1
I2
I3
I4
I5
I6
I7
tp3391
I2
tp3392
a((I0
I1
I2
I3
I4
I7
tp3393
I1
tp3394
a((I0
I1
I2
I3
I4
I7
tp3395
I5
tp3396
a((I0
I1
I2
I3
I4
I7
tp3397
I5
tp3398
a((I0
I1
I2
I3
I4
I7
tp3399
I5
tp3400
a((I0
I1
I2
I3
I4
I5
I6
I7
tp3401
I2
tp3402
a((I0
I1
I2
I3
I4
I7
tp3403
I5
tp3404
a((I0
I1
I2
I3
I4
I7
tp3405
I1
tp3406
a((I0
I1
I2
I3
I4
I5
I6
I7
tp3407
I7
tp3408
a((I0
I1
I2
I3
I4
I5
I6
I7
tp3409
I7
tp3410
a((I0
I1
I2
I3
I4
I7
tp3411
I1
tp3412
a((I0
I1
I2
I3
I4
I5
I6
I7
tp3413
I7
tp3414
a((I0
I1
I2
I3
I4
I7
tp3415
I1
tp3416
a((I0
I1
I2
I3
I4
I7
tp3417
I1
tp3418
a((I0
I1
I2
I3
I4
tp3419
I1
tp3420
a((I0
I1
I2
I3
I4
I7
tp3421
I1
tp3422
a((I0
I1
I2
I3
I4
I5
I7
tp3423
I1
tp3424
a((I0
I1
I2
I3
I4
I5
I7
tp3425
I1
tp3426
a((I0
I1
I2
I3
I4
I5
I6
I7
tp3427
I7
tp3428
a((I0
I1
I2
I3
I4
I5
I6
I7
tp3429
I7
tp3430
a((I0
I1
I2
I3
I4
I5
I6
I7
tp3431
I7
tp3432
a((I0
I1
I2
I3
I4
I5
I6
I7
tp3433
I7
tp3434
a((I0
I1
I2
I3
I4
I5
I6
I7
tp3435
I7
tp3436
a((I0
I1
I2
I3
I4
I5
I6
I7
tp3437
I6
tp3438
a((I0
I1
I2
I3
I4
I5
I6
I7
tp3439
I7
tp3440
a((I0
I1
I2
I3
I4
I5
I6
I7
tp3441
I1
tp3442
a((I0
I1
I2
I3
I4
I5
I6
I7
tp3443
I7
tp3444
a((I0
I1
I2
I3
I4
I5
I6
I7
tp3445
I7
tp3446
a((I0
I1
I2
I3
I4
I5
I6
I7
tp3447
I1
tp3448
a((I0
I1
I2
I3
I4
I5
I6
I7
tp3449
I1
tp3450
a((I0
I1
I2
I3
I4
I7
tp3451
I1
tp3452
a((I0
I1
I2
I3
I4
I7
tp3453
I1
tp3454
a((I0
I1
I2
I3
I4
I7
tp3455
I5
tp3456
a((I0
I1
I2
I3
I4
I7
tp3457
I5
tp3458
a((I0
I1
I2
I3
I4
I7
tp3459
I5
tp3460
a((I0
I1
I2
I3
I4
I7
tp3461
I5
tp3462
a((I0
I1
I2
I3
I4
I7
tp3463
I1
tp3464
a((I0
I1
I2
I3
I4
I7
tp3465
I2
tp3466
a((I0
I1
I2
I3
I4
I7
tp3467
I5
tp3468
a((I0
I1
I2
I3
I4
I7
tp3469
I5
tp3470
a((I0
I1
I2
I3
I4
I7
tp3471
I2
tp3472
a((I0
I1
I2
I3
I4
I7
tp3473
I2
tp3474
a((I0
I1
I2
I3
I4
I7
tp3475
I5
tp3476
a((I0
I1
I2
I3
I4
I5
I6
I7
tp3477
I7
tp3478
a((I0
I1
I2
I3
I4
I5
I6
I7
tp3479
I2
tp3480
a((I0
I1
I2
I3
I4
I7
tp3481
I5
tp3482
a((I0
I1
I2
I3
I4
I7
tp3483
I1
tp3484
a((I0
I1
I2
I3
I4
I7
tp3485
I5
tp3486
a((I0
I1
I2
I3
I4
I7
tp3487
I5
tp3488
a((I0
I1
I2
I3
I4
I7
tp3489
I5
tp3490
a((I0
I1
I2
I3
I4
I7
tp3491
I5
tp3492
a((I0
I1
I2
I3
I4
I7
tp3493
I1
tp3494
a((I0
I1
I2
I3
I4
I7
tp3495
I1
tp3496
a((I0
I1
I2
I3
I4
I5
I6
I7
tp3497
I7
tp3498
a((I0
I1
I2
I3
I4
I7
tp3499
I2
tp3500
a((I0
I1
I2
I3
I4
I7
tp3501
I2
tp3502
a((I0
I1
I2
I3
I4
I7
tp3503
I2
tp3504
a((I0
I1
I2
I3
I4
I5
I6
I7
tp3505
I7
tp3506
a((I0
I1
I2
I3
I4
I7
tp3507
I5
tp3508
a((I0
I1
I2
I3
I4
I5
I6
I7
tp3509
I7
tp3510
a((I0
I1
I2
I3
I4
I5
I7
tp3511
I6
tp3512
a((I0
I1
I2
I3
I4
I5
I6
I7
tp3513
I1
tp3514
a((I0
I1
I2
I3
I4
I5
I6
I7
tp3515
I1
tp3516
a((I0
I1
I2
I3
I4
I5
I6
I7
tp3517
I7
tp3518
a((I0
I1
I2
I3
I4
I5
I6
I7
tp3519
I7
tp3520
a((I0
I1
I2
I3
I4
I5
I6
I7
tp3521
I2
tp3522
a((I0
I1
I2
I3
I4
I7
tp3523
I5
tp3524
a((I0
I1
I2
I3
I4
I5
I6
I7
tp3525
I7
tp3526
a((I0
I1
I2
I3
I4
I5
I6
I7
tp3527
I2
tp3528
a((I0
I1
I2
I3
I4
I5
I6
I7
tp3529
I7
tp3530
a((I0
I1
I2
I3
I4
I5
I6
I7
tp3531
I7
tp3532
a((I0
I1
I2
I3
I4
I5
I6
I7
tp3533
I1
tp3534
a((I0
I1
I2
I3
I4
I5
I6
I7
tp3535
I1
tp3536
a((I0
I1
I2
I3
I4
I7
tp3537
I1
tp3538
a((I0
I1
I2
I3
I4
I5
I7
tp3539
I1
tp3540
a((I0
I1
I2
I3
I4
I5
I6
I7
tp3541
I7
tp3542
a((I0
I1
I2
I3
I4
I7
tp3543
I5
tp3544
a((I0
I1
I2
I3
I4
I5
I6
I7
tp3545
I7
tp3546
a((I0
I1
I2
I3
I4
I5
I7
tp3547
I6
tp3548
a((I0
I1
I2
I3
I4
I7
tp3549
I1
tp3550
a((I0
I1
I2
I3
I4
I7
tp3551
I1
tp3552
a((I0
I1
I2
I3
I4
I5
I6
I7
tp3553
I1
tp3554
a((I0
I1
I2
I3
I4
I5
I6
I7
tp3555
I1
tp3556
a((I0
I1
I2
I3
I4
I7
tp3557
I5
tp3558
a((I0
I1
I2
I3
I4
I5
I6
I7
tp3559
I7
tp3560
a((I0
I1
I2
I3
I4
I5
I6
I7
tp3561
I7
tp3562
a((I0
I1
I2
I3
I4
I7
tp3563
I2
tp3564
a((I0
I1
I2
I3
I4
I5
I6
I7
tp3565
I7
tp3566
a((I0
I1
I2
I3
I4
I7
tp3567
I5
tp3568
a((I0
I1
I2
I3
I4
I5
I6
I7
tp3569
I7
tp3570
a((I0
I1
I2
I3
I4
I5
I6
I7
tp3571
I7
tp3572
a((I0
I1
I2
I3
I4
I7
tp3573
I5
tp3574
a((I0
I1
I2
I3
I4
I5
I6
I7
tp3575
I7
tp3576
a((I0
I1
I2
I3
I4
I7
tp3577
I5
tp3578
a((I0
I1
I2
I3
I4
I5
I6
I7
tp3579
I7
tp3580
a((I0
I1
I2
I3
I4
I5
I6
I7
tp3581
I7
tp3582
a((I0
I1
I2
I3
I4
I5
I6
I7
tp3583
I7
tp3584
a((I0
I1
I2
I3
I4
I5
I6
I7
tp3585
I7
tp3586
a((I0
I1
I2
I3
I4
I5
I6
I7
tp3587
I6
tp3588
a((I0
I1
I2
I3
I4
I5
I6
I7
tp3589
I7
tp3590
a((I0
I1
I2
I3
I4
tp3591
I2
tp3592
a((I0
I1
I2
I3
I4
tp3593
I2
tp3594
a((I0
I1
I2
I3
I4
I5
I6
I7
tp3595
I7
tp3596
a((I0
I1
I2
I3
I4
I5
I6
I7
tp3597
I2
tp3598
a((I0
I1
I2
I3
I4
I5
I6
I7
tp3599
I7
tp3600
a((I0
I1
I2
I3
I4
I5
I6
tp3601
I6
tp3602
a((I0
I1
I2
I3
I4
I5
I6
I7
tp3603
I7
tp3604
a((I0
I1
I2
I3
I4
I5
I7
tp3605
I1
tp3606
a((I0
I1
I2
I3
I4
I5
I6
I7
tp3607
I1
tp3608
a((I0
I1
I2
I3
I4
I5
I6
I7
tp3609
I7
tp3610
a((I0
I1
I2
I3
I4
I5
I7
tp3611
I1
tp3612
a((I0
I1
I2
I3
I4
I5
I6
I7
tp3613
I1
tp3614
a((I0
I1
I2
I3
I4
I7
tp3615
I1
tp3616
a((I0
I1
I2
I3
I4
I7
tp3617
I1
tp3618
a((I0
I1
I2
I3
I4
I5
I6
I7
tp3619
I7
tp3620
a((I0
I1
I2
I3
I4
I5
I6
I7
tp3621
I7
tp3622
a((I0
I1
I2
I3
I4
I5
I7
tp3623
I6
tp3624
a((I0
I1
I2
I3
I4
I5
I6
I7
tp3625
I7
tp3626
a((I0
I1
I2
I3
I4
I5
I6
I7
tp3627
I7
tp3628
a((I0
I1
I2
I3
I4
I5
I6
I7
tp3629
I7
tp3630
a((I0
I1
I2
I3
I4
I5
I7
tp3631
I6
tp3632
a((I0
I1
I2
I3
I4
I7
tp3633
I1
tp3634
a((I0
I1
I2
I3
I4
I5
I6
I7
tp3635
I7
tp3636
a((I0
I1
I2
I3
I4
I7
tp3637
I5
tp3638
a((I0
I1
I2
I3
I4
I5
I6
I7
tp3639
I1
tp3640
a((I1
I2
I3
I4
I7
tp3641
I0
tp3642
a((I1
I2
I3
I4
I7
tp3643
I0
tp3644
a((I0
I1
I2
I3
I4
I5
I6
I7
tp3645
I1
tp3646
a((I0
I1
I2
I3
I4
I5
I6
I7
tp3647
I7
tp3648
a((I0
I1
I2
I3
I4
I7
tp3649
I5
tp3650
a((I0
I1
I2
I3
I4
I7
tp3651
I1
tp3652
a((I0
I1
I2
I3
I4
I5
I7
tp3653
I6
tp3654
a((I0
I1
I2
I3
I4
I5
I6
I7
tp3655
I2
tp3656
a((I0
I1
I2
I3
I4
I5
I6
I7
tp3657
I1
tp3658
a((I0
I1
I2
I3
I4
I5
I6
I7
tp3659
I2
tp3660
a((I0
I1
I2
I3
I4
I5
I6
I7
tp3661
I1
tp3662
a((I0
I1
I2
I3
I4
I7
tp3663
I1
tp3664
a((I0
I1
I2
I3
I4
I5
I6
I7
tp3665
I1
tp3666
a((I0
I1
I2
I3
I4
I7
tp3667
I1
tp3668
a((I0
I1
I2
I3
I4
I7
tp3669
I2
tp3670
a((I0
I1
I2
I3
I4
I5
I6
I7
tp3671
I7
tp3672
a((I0
I1
I2
I3
I4
I7
tp3673
I5
tp3674
a((I0
I1
I2
I3
I4
I7
tp3675
I2
tp3676
a((I0
I1
I2
I3
I4
I5
I6
I7
tp3677
I7
tp3678
a((I0
I1
I2
I3
I4
I7
tp3679
I5
tp3680
a((I1
I2
I3
I4
I7
tp3681
I4
tp3682
a((I0
I1
I2
I3
I4
I7
tp3683
I1
tp3684
a((I0
I1
I2
I3
I4
I7
tp3685
I1
tp3686
a((I0
I1
I2
I3
I4
I5
I6
I7
tp3687
I2
tp3688
a((I0
I1
I2
I3
I4
I5
I6
I7
tp3689
I1
tp3690
a((I0
I1
I2
I3
I4
I5
I6
I7
tp3691
I7
tp3692
a((I0
I1
I2
I3
I4
I7
tp3693
I5
tp3694
a((I0
I1
I2
I3
I4
I7
tp3695
I2
tp3696
a((I0
I1
I2
I3
I4
I7
tp3697
I2
tp3698
a((I0
I1
I2
I3
I4
I7
tp3699
I5
tp3700
a((I0
I1
I2
I3
I4
I5
I6
I7
tp3701
I5
tp3702
a((I0
I1
I2
I3
I4
I5
I6
I7
tp3703
I7
tp3704
a((I0
I1
I2
I3
I4
I5
I6
I7
tp3705
I7
tp3706
a((I0
I1
I2
I3
I4
I5
I7
tp3707
I6
tp3708
a((I0
I1
I2
I3
I4
I5
I6
I7
tp3709
I7
tp3710
a((I0
I1
I2
I3
I4
I7
tp3711
I5
tp3712
a((I0
I1
I2
I3
I4
I5
I6
I7
tp3713
I1
tp3714
a((I0
I1
I2
I3
I4
I7
tp3715
I1
tp3716
a((I0
I1
I2
I3
I4
I5
I6
I7
tp3717
I7
tp3718
a((I0
I1
I2
I3
I4
I5
I6
I7
tp3719
I1
tp3720
a((I0
I1
I2
I3
I4
I5
I6
I7
tp3721
I6
tp3722
a((I0
I1
I2
I3
I4
I7
tp3723
I5
tp3724
a((I0
I1
I2
I3
I4
I5
I6
I7
tp3725
I1
tp3726
a((I0
I1
I2
I3
I4
I7
tp3727
I1
tp3728
a((I0
I1
I2
I3
I4
I5
I6
I7
tp3729
I2
tp3730
a((I0
I1
I2
I3
I4
I7
tp3731
I2
tp3732
a((I0
I1
I2
I3
I4
I5
I6
I7
tp3733
I2
tp3734
a((I0
I1
I2
I3
I4
I7
tp3735
I5
tp3736
a((I0
I1
I2
I3
I4
I7
tp3737
I5
tp3738
a((I0
I1
I2
I3
I4
I5
I6
I7
tp3739
I7
tp3740
a((I0
I1
I2
I3
I4
I5
I6
I7
tp3741
I1
tp3742
a((I0
I1
I2
I3
I4
I7
tp3743
I5
tp3744
a((I0
I1
I2
I3
I4
I7
tp3745
I1
tp3746
a((I0
I1
I2
I3
I4
I5
I7
tp3747
I6
tp3748
a((I0
I1
I2
I3
I4
I5
I7
tp3749
I6
tp3750
a((I0
I1
I2
I3
I4
I5
I6
I7
tp3751
I7
tp3752
a((I0
I1
I2
I3
I4
I7
tp3753
I2
tp3754
a((I0
I1
I2
I3
I4
I7
tp3755
I2
tp3756
a((I0
I1
I2
I3
I4
I7
tp3757
I1
tp3758
a((I0
I1
I2
I3
I4
I7
tp3759
I5
tp3760
a((I0
I1
I2
I3
I4
I7
tp3761
I2
tp3762
a((I0
I1
I2
I3
I4
I5
I6
I7
tp3763
I7
tp3764
a((I0
I1
I2
I3
I4
I5
I6
I7
tp3765
I7
tp3766
a((I0
I1
I2
I3
I4
I5
I6
I7
tp3767
I7
tp3768
a((I1
I2
I3
I4
I5
I6
I7
tp3769
I6
tp3770
a((I0
I1
I2
I3
I4
I7
tp3771
I5
tp3772
a((I0
I1
I2
I3
I4
I5
I7
tp3773
I6
tp3774
a((I0
I1
I2
I3
I4
I7
tp3775
I5
tp3776
a((I0
I1
I2
I3
I4
I5
I6
I7
tp3777
I1
tp3778
a((I0
I1
I2
I3
I4
I7
tp3779
I1
tp3780
a((I0
I1
I2
I3
I4
I5
I6
I7
tp3781
I7
tp3782
a((I0
I1
I2
I3
I4
I5
I7
tp3783
I6
tp3784
a((I0
I1
I2
I3
I4
I5
I6
I7
tp3785
I7
tp3786
a((I0
I1
I2
I3
I4
I5
I6
I7
tp3787
I7
tp3788
a((I0
I1
I2
I3
I4
I5
I6
I7
tp3789
I7
tp3790
a((I0
I1
I2
I3
I4
I5
I6
I7
tp3791
I7
tp3792
a((I0
I1
I2
I3
I4
I5
I6
I7
tp3793
I2
tp3794
a((I0
I1
I2
I3
I4
I5
I6
I7
tp3795
I1
tp3796
a((I0
I1
I2
I3
I4
I5
I6
I7
tp3797
I7
tp3798
a((I0
I1
I2
I3
I4
I5
I6
I7
tp3799
I7
tp3800
a((I0
I1
I2
I3
I4
I5
I6
I7
tp3801
I7
tp3802
a((I0
I1
I2
I3
I4
I7
tp3803
I5
tp3804
a((I0
I1
I2
I3
I4
I7
tp3805
I5
tp3806
a((I0
I1
I2
I3
I4
I7
tp3807
I5
tp3808
a((I0
I1
I2
I3
I4
I5
I6
I7
tp3809
I7
tp3810
a((I0
I1
I2
I3
I4
I5
I7
tp3811
I6
tp3812
a((I0
I1
I2
I3
I4
I5
I7
tp3813
I6
tp3814
a((I0
I1
I2
I3
I4
I5
I7
tp3815
I6
tp3816
a((I0
I1
I2
I3
I4
I7
tp3817
I5
tp3818
a((I0
I1
I2
I3
I4
I5
I6
I7
tp3819
I7
tp3820
a((I0
I1
I2
I3
I4
I5
I6
I7
tp3821
I1
tp3822
a((I0
I1
I2
I3
I4
I5
I6
I7
tp3823
I1
tp3824
a((I0
I1
I2
I3
I4
I5
I6
I7
tp3825
I7
tp3826
a((I0
I1
I2
I3
I4
I5
I6
I7
tp3827
I6
tp3828
a((I0
I1
I2
I3
I4
I5
I6
I7
tp3829
I1
tp3830
a((I0
I1
I2
I3
I4
I7
tp3831
I5
tp3832
a((I0
I1
I2
I3
I4
I5
I6
I7
tp3833
I1
tp3834
a((I0
I1
I2
I3
I4
I5
I6
I7
tp3835
I7
tp3836
a((I0
I1
I2
I3
I4
I5
I6
I7
tp3837
I1
tp3838
a((I0
I1
I2
I3
I4
I5
I6
I7
tp3839
I1
tp3840
a((I0
I1
I2
I3
I4
I5
I6
I7
tp3841
I1
tp3842
a((I0
I1
I2
I3
I4
I5
I6
I7
tp3843
I1
tp3844
a((I0
I1
I2
I3
I4
I7
tp3845
I1
tp3846
a((I0
I1
I2
I3
I4
I7
tp3847
I1
tp3848
a((I0
I1
I2
I3
I4
I5
I6
I7
tp3849
I1
tp3850
a((I0
I1
I2
I3
I4
I5
I7
tp3851
I1
tp3852
a((I0
I1
I2
I3
I4
I5
I7
tp3853
I1
tp3854
a((I0
I1
I2
I3
I4
I7
tp3855
I5
tp3856
a((I0
I1
I2
I3
I4
I5
I6
I7
tp3857
I2
tp3858
a((I0
I1
I2
I3
I4
I5
I6
I7
tp3859
I1
tp3860
a((I0
I1
I2
I3
I4
I5
I6
I7
tp3861
I7
tp3862
a((I0
I1
I2
I3
I4
I7
tp3863
I1
tp3864
a((I0
I1
I2
I3
I4
I7
tp3865
I5
tp3866
a((I0
I1
I2
I3
I4
I7
tp3867
I1
tp3868
a((I0
I1
I2
I3
I4
I7
tp3869
I5
tp3870
a((I0
I1
I2
I3
I4
I7
tp3871
I5
tp3872
a((I0
I1
I2
I3
I4
I5
I6
I7
tp3873
I1
tp3874
a((I0
I1
I2
I3
I4
I7
tp3875
I5
tp3876
a((I0
I1
I2
I3
I4
I5
I6
I7
tp3877
I1
tp3878
a((I0
I1
I2
I3
I4
I5
I6
I7
tp3879
I1
tp3880
a((I0
I1
I2
I3
I4
I5
I6
I7
tp3881
I1
tp3882
a((I0
I1
I2
I3
I4
I5
I6
I7
tp3883
I1
tp3884
a((I0
I1
I2
I3
I4
I7
tp3885
I5
tp3886
a((I0
I1
I2
I3
I4
I7
tp3887
I5
tp3888
a((I0
I1
I2
I3
I4
I5
I6
I7
tp3889
I7
tp3890
a((I0
I1
I2
I3
I4
I5
I6
I7
tp3891
I1
tp3892
a((I0
I1
I2
I3
I4
I7
tp3893
I5
tp3894
a((I0
I1
I2
I3
I4
I5
I6
I7
tp3895
I7
tp3896
a((I0
I1
I2
I3
I4
I5
I6
I7
tp3897
I7
tp3898
a((I0
I1
I2
I3
I4
I7
tp3899
I5
tp3900
a((I0
I1
I2
I3
I4
I5
I6
I7
tp3901
I7
tp3902
a((I0
I1
I2
I3
I4
I5
I6
I7
tp3903
I7
tp3904
a((I0
I1
I2
I3
I4
I7
tp3905
I5
tp3906
a((I0
I1
I2
I3
I4
I7
tp3907
I5
tp3908
a((I0
I1
I2
I3
I4
I5
I6
I7
tp3909
I7
tp3910
a((I0
I1
I2
I3
I4
I5
I6
I7
tp3911
I7
tp3912
a((I0
I1
I2
I3
I4
I7
tp3913
I5
tp3914
a((I0
I1
I2
I3
I4
I7
tp3915
I1
tp3916
a((I0
I1
I2
I3
I4
I5
I6
I7
tp3917
I7
tp3918
a((I0
I1
I2
I3
I4
I5
I6
I7
tp3919
I2
tp3920
a((I0
I1
I2
I3
I4
I5
I6
I7
tp3921
I7
tp3922
a((I0
I1
I2
I3
I4
I5
I6
I7
tp3923
I7
tp3924
a((I0
I1
I2
I3
I4
I5
I6
I7
tp3925
I7
tp3926
a((I0
I1
I2
I3
I4
I5
I7
tp3927
I6
tp3928
a((I0
I1
I2
I3
I4
I7
tp3929
I5
tp3930
a((I0
I1
I2
I3
I4
I5
I6
I7
tp3931
I7
tp3932
a((I0
I1
I2
I3
I4
I5
I6
I7
tp3933
I2
tp3934
a((I0
I1
I2
I3
I4
I5
I6
I7
tp3935
I2
tp3936
a((I0
I1
I2
I3
I4
I5
I6
I7
tp3937
I7
tp3938
a((I0
I1
I2
I3
I4
I5
I6
I7
tp3939
I1
tp3940
a((I0
I1
I2
I3
I4
I5
I6
I7
tp3941
I1
tp3942
a((I0
I1
I2
I3
I4
I5
I6
I7
tp3943
I7
tp3944
a((I0
I1
I2
I3
I4
I7
tp3945
I5
tp3946
a((I0
I1
I2
I3
I4
I5
I6
I7
tp3947
I7
tp3948
a((I1
I2
I3
I4
I7
tp3949
I4
tp3950
a((I0
I1
I2
I3
I4
I5
I6
I7
tp3951
I5
tp3952
a((I0
I1
I2
I3
I4
I5
I6
I7
tp3953
I1
tp3954
a((I0
I1
I2
I3
I4
I5
I6
I7
tp3955
I1
tp3956
a((I0
I1
I2
I3
I4
I7
tp3957
I5
tp3958
a((I0
I1
I2
I3
I4
I7
tp3959
I5
tp3960
a((I0
I1
I2
I3
I4
I5
I6
I7
tp3961
I1
tp3962
a((I0
I1
I2
I3
I4
I7
tp3963
I5
tp3964
a((I0
I1
I2
I3
I4
I7
tp3965
I5
tp3966
a((I0
I1
I2
I3
I4
I5
I7
tp3967
I6
tp3968
a((I0
I1
I2
I3
I4
I5
I6
I7
tp3969
I5
tp3970
a((I0
I1
I2
I3
I4
I5
I6
I7
tp3971
I6
tp3972
a((I0
I1
I2
I3
I4
I5
I6
I7
tp3973
I1
tp3974
a((I0
I1
I2
I3
I4
I5
I6
I7
tp3975
I7
tp3976
a((I0
I1
I2
I3
I4
I5
I6
I7
tp3977
I7
tp3978
a((I0
I1
I2
I3
I4
I7
tp3979
I1
tp3980
a((I0
I1
I2
I3
I4
I7
tp3981
I1
tp3982
a((I0
I1
I2
I3
I4
I7
tp3983
I1
tp3984
a((I0
I1
I2
I3
I4
I7
tp3985
I5
tp3986
a((I0
I1
I2
I3
I4
I7
tp3987
I5
tp3988
a((I0
I1
I2
I3
I4
I5
I6
I7
tp3989
I7
tp3990
a((I0
I1
I2
I3
I4
I5
I7
tp3991
I6
tp3992
a((I0
I1
I2
I3
I4
I5
I6
I7
tp3993
I6
tp3994
a((I0
I1
I2
I3
I4
I7
tp3995
I5
tp3996
a((I0
I1
I2
I3
I4
I5
I7
tp3997
I1
tp3998
a((I0
I1
I2
I3
I4
I5
I6
I7
tp3999
I1
tp4000
a((I0
I1
I2
I3
I4
I5
I6
I7
tp4001
I1
tp4002
a((I0
I1
I2
I3
I4
I7
tp4003
I2
tp4004
a((I1
I2
I3
I4
I5
I6
I7
tp4005
I6
tp4006
a((I0
I1
I2
I3
I4
I5
I6
I7
tp4007
I7
tp4008
a((I0
I1
I2
I3
I4
I7
tp4009
I5
tp4010
a((I0
I1
I2
I3
I4
I7
tp4011
I5
tp4012
a((I0
I1
I2
I3
I4
I7
tp4013
I5
tp4014
a((I0
I1
I2
I3
I4
I5
I6
I7
tp4015
I6
tp4016
a((I0
I1
I2
I3
I4
I7
tp4017
I5
tp4018
a((I0
I1
I2
I3
I4
I5
I6
I7
tp4019
I7
tp4020
a((I0
I1
I2
I3
I4
I5
I7
tp4021
I1
tp4022
a((I0
I1
I2
I3
I4
I5
I7
tp4023
I1
tp4024
a((I0
I1
I2
I3
I4
I5
I6
I7
tp4025
I7
tp4026
a((I0
I1
I2
I3
I4
I5
I6
I7
tp4027
I2
tp4028
a((I0
I1
I2
I3
I4
I5
I6
I7
tp4029
I7
tp4030
a((I1
I2
I3
I4
I5
I6
I7
tp4031
I5
tp4032
a((I0
I1
I2
I3
I4
I7
tp4033
I1
tp4034
a((I0
I1
I2
I3
I4
I5
I6
I7
tp4035
I7
tp4036
a((I0
I1
I2
I3
I4
I7
tp4037
I1
tp4038
a((I0
I1
I2
I3
I4
I5
I6
I7
tp4039
I1
tp4040
a((I0
I1
I2
I3
I4
I5
I7
tp4041
I1
tp4042
a((I0
I1
I2
I3
I4
I5
I6
I7
tp4043
I7
tp4044
a((I1
I2
I3
I4
I5
I6
I7
tp4045
I0
tp4046
a((I0
I1
I2
I3
I4
I5
I6
I7
tp4047
I7
tp4048
a((I0
I1
I2
I3
I4
I5
I6
I7
tp4049
I7
tp4050
a((I0
I1
I2
I3
I4
I7
tp4051
I1
tp4052
a((I0
I1
I2
I3
I4
I5
I6
I7
tp4053
I7
tp4054
a((I0
I1
I2
I3
I4
I7
tp4055
I1
tp4056
a((I0
I1
I2
I3
I4
I7
tp4057
I5
tp4058
a((I0
I1
I2
I3
I4
I5
I6
I7
tp4059
I7
tp4060
a((I0
I1
I2
I3
I4
I7
tp4061
I5
tp4062
a((I0
I1
I2
I3
I4
I5
I6
I7
tp4063
I7
tp4064
a((I0
I1
I2
I3
I4
I5
I7
tp4065
I6
tp4066
a((I0
I1
I2
I3
I4
I5
I6
I7
tp4067
I1
tp4068
a((I0
I1
I2
I3
I4
I5
I6
I7
tp4069
I7
tp4070
a((I0
I1
I2
I3
I4
I5
I6
I7
tp4071
I7
tp4072
a((I0
I1
I2
I3
I4
I5
I6
I7
tp4073
I1
tp4074
a((I0
I1
I2
I3
I4
I5
I6
tp4075
I0
tp4076
a((I0
I1
I2
I3
I4
I5
I6
I7
tp4077
I7
tp4078
a((I1
I2
I3
I4
I7
tp4079
I1
tp4080
a((I1
I2
I3
I4
I7
tp4081
I4
tp4082
a((I0
I1
I2
I3
I4
I5
I6
I7
tp4083
I6
tp4084
a((I0
I1
I2
I3
I4
I7
tp4085
I1
tp4086
a((I0
I1
I2
I3
I4
I5
I6
I7
tp4087
I1
tp4088
a((I0
I1
I2
I3
I4
I5
I6
I7
tp4089
I1
tp4090
a((I0
I1
I2
I3
I4
I7
tp4091
I5
tp4092
a((I0
I1
I2
I3
I4
I5
I6
I7
tp4093
I6
tp4094
a((I0
I1
I2
I3
I4
I5
I6
I7
tp4095
I7
tp4096
a((I0
I1
I2
I3
I4
I7
tp4097
I5
tp4098
a((I0
I1
I2
I3
I4
I5
I6
I7
tp4099
I1
tp4100
a((I0
I1
I2
I3
I4
I5
I6
I7
tp4101
I7
tp4102
a((I0
I1
I2
I3
I4
I5
I6
I7
tp4103
I7
tp4104
a((I0
I1
I2
I3
I4
I7
tp4105
I5
tp4106
a((I0
I1
I2
I3
I4
I7
tp4107
I5
tp4108
a((I0
I1
I2
I3
I4
I5
I6
I7
tp4109
I7
tp4110
a((I0
I1
I2
I3
I4
I5
I6
I7
tp4111
I6
tp4112
a((I0
I1
I2
I3
I4
I5
I6
I7
tp4113
I1
tp4114
a((I0
I1
I2
I3
I4
I5
I6
I7
tp4115
I7
tp4116
a((I0
I1
I2
I3
I4
I5
I6
I7
tp4117
I7
tp4118
a((I0
I1
I2
I3
I4
I7
tp4119
I5
tp4120
a((I0
I1
I2
I3
I4
I5
I7
tp4121
I6
tp4122
a((I0
I1
I2
I3
I4
I5
I6
I7
tp4123
I7
tp4124
a((I0
I1
I2
I3
I4
I7
tp4125
I5
tp4126
a((I0
I1
I2
I3
I4
I5
I6
I7
tp4127
I7
tp4128
a((I0
I1
I2
I3
I4
I5
I6
I7
tp4129
I1
tp4130
a((I1
I2
I3
I4
I5
I6
I7
tp4131
I5
tp4132
a((I0
I1
I2
I3
I4
I5
I6
I7
tp4133
I7
tp4134
a((I0
I1
I2
I3
I4
I7
tp4135
I1
tp4136
a((I0
I1
I2
I3
I4
I7
tp4137
I1
tp4138
a((I1
I2
I3
I4
I7
tp4139
I4
tp4140
a((I0
I1
I2
I3
I4
I5
I6
I7
tp4141
I6
tp4142
a((I0
I1
I2
I3
I4
I5
I7
tp4143
I6
tp4144
a((I0
I1
I2
I3
I4
I5
I6
I7
tp4145
I7
tp4146
a((I0
I1
I2
I3
I4
I7
tp4147
I2
tp4148
a((I0
I1
I2
I3
I4
I5
I6
I7
tp4149
I2
tp4150
a((I0
I1
I2
I3
I4
I5
I6
I7
tp4151
I2
tp4152
a((I0
I1
I2
I3
I4
I7
tp4153
I2
tp4154
a((I0
I1
I2
I3
I4
I5
I6
I7
tp4155
I7
tp4156
a((I0
I1
I2
I3
I4
I5
I6
I7
tp4157
I7
tp4158
a((I1
I2
I3
I4
I5
I7
tp4159
I0
tp4160
a((I1
I2
I3
I4
I5
I7
tp4161
I0
tp4162
a((I0
I1
I2
I3
I4
I5
I6
I7
tp4163
I7
tp4164
a((I0
I1
I2
I3
I4
I5
I6
I7
tp4165
I7
tp4166
a((I0
I1
I2
I3
I4
I7
tp4167
I2
tp4168
a((I0
I1
I2
I3
I4
I7
tp4169
I2
tp4170
a((I1
I2
I3
I4
I5
I7
tp4171
I5
tp4172
a((I0
I1
I2
I3
I4
I5
I6
I7
tp4173
I7
tp4174
a((I0
I1
I2
I3
I4
I5
I6
I7
tp4175
I7
tp4176
a((I0
I1
I2
I3
I4
I5
I6
I7
tp4177
I2
tp4178
a((I1
I2
I3
I4
I7
tp4179
I0
tp4180
a((I0
I1
I2
I3
I4
I5
I6
I7
tp4181
I2
tp4182
a((I0
I1
I2
I3
I4
I5
I6
I7
tp4183
I1
tp4184
a((I0
I1
I2
I3
I4
I5
I6
tp4185
I2
tp4186
a((I1
I2
I3
I4
I7
tp4187
I4
tp4188
a((I0
I1
I2
I3
I4
I5
I6
I7
tp4189
I2
tp4190
a((I0
I1
I2
I3
I4
I5
I6
I7
tp4191
I2
tp4192
a((I0
I1
I2
I3
I4
I5
I6
I7
tp4193
I2
tp4194
a((I0
I1
I2
I3
I4
I5
I6
I7
tp4195
I2
tp4196
a((I0
I1
I2
I3
I4
I5
I6
I7
tp4197
I2
tp4198
a((I1
I2
I3
I4
I7
tp4199
I4
tp4200
a((I1
I2
I3
I4
I7
tp4201
I0
tp4202
a((I1
I2
I3
I4
I7
tp4203
I0
tp4204
a((I1
I2
I3
I4
I7
tp4205
I0
tp4206
a((I0
I1
I2
I3
I4
I5
I6
I7
tp4207
I7
tp4208
a((I0
I1
I2
I3
I4
I5
I6
I7
tp4209
I1
tp4210
a((I0
I1
I2
I3
I4
I5
I6
I7
tp4211
I7
tp4212
a((I1
I2
I3
I4
I7
tp4213
I4
tp4214
a((I1
I2
I3
I4
I7
tp4215
I0
tp4216
a((I0
I1
I2
I3
I4
I7
tp4217
I5
tp4218
a((I0
I1
I2
I3
I4
I5
I6
I7
tp4219
I7
tp4220
a((I0
I1
I2
I3
I4
I5
I7
tp4221
I1
tp4222
a((I0
I1
I2
I3
I4
I5
I7
tp4223
I1
tp4224
a((I0
I1
I2
I3
I4
I5
I6
I7
tp4225
I1
tp4226
a((I0
I1
I2
I3
I4
I5
I6
I7
tp4227
I1
tp4228
a((I0
I1
I2
I3
I4
I5
I6
I7
tp4229
I1
tp4230
a((I0
I1
I2
I3
I4
I5
I6
I7
tp4231
I7
tp4232
a((I0
I1
I2
I3
I4
I5
I6
I7
tp4233
I1
tp4234
a((I0
I1
I2
I3
I4
I5
I7
tp4235
I2
tp4236
a((I0
I1
I2
I3
I4
I5
I7
tp4237
I2
tp4238
a((I1
I2
I3
I4
I5
I7
tp4239
I5
tp4240
a((I0
I1
I2
I3
I4
I5
I6
I7
tp4241
I7
tp4242
a((I0
I1
I2
I3
I4
I5
I6
I7
tp4243
I7
tp4244
a((I0
I1
I2
I3
I4
I5
I6
I7
tp4245
I1
tp4246
a((I0
I1
I2
I3
I4
I5
I6
I7
tp4247
I7
tp4248
a((I0
I1
I2
I3
I4
I5
I6
I7
tp4249
I7
tp4250
a((I0
I1
I2
I3
I4
I5
I6
I7
tp4251
I7
tp4252
a((I0
I1
I2
I3
I4
I5
I7
tp4253
I5
tp4254
a((I0
I1
I2
I3
I4
I5
I6
I7
tp4255
I1
tp4256
a((I0
I1
I2
I3
I4
I5
I6
I7
tp4257
I2
tp4258
a((I0
I1
I2
I3
I4
I5
I6
I7
tp4259
I7
tp4260
a((I0
I1
I2
I3
I4
I5
I6
I7
tp4261
I1
tp4262
a((I0
I1
I2
I3
I4
I5
I6
I7
tp4263
I7
tp4264
a((I0
I1
I2
I3
I4
I5
I6
I7
tp4265
I7
tp4266
a((I0
I1
I2
I3
I4
I5
I6
I7
tp4267
I7
tp4268
a((I1
I2
I3
I4
I7
tp4269
I4
tp4270
a((I0
I1
I2
I3
I4
I5
I6
I7
tp4271
I1
tp4272
a((I1
I2
I3
I4
I7
tp4273
I1
tp4274
a((I0
I1
I2
I3
I4
I5
I6
I7
tp4275
I7
tp4276
a((I0
I1
I2
I3
I4
I7
tp4277
I5
tp4278
a((I1
I2
I3
I4
I7
tp4279
I4
tp4280
a((I1
I2
I3
I4
I7
tp4281
I4
tp4282
a((I0
I1
I2
I3
I4
I7
tp4283
I2
tp4284
a((I0
I1
I2
I3
I4
I5
I6
I7
tp4285
I2
tp4286
a((I0
I1
I2
I3
I4
I7
tp4287
I5
tp4288
a((I1
I2
I3
I4
I7
tp4289
I4
tp4290
a((I1
I2
I3
I4
I7
tp4291
I1
tp4292
a((I1
I2
I3
I4
I7
tp4293
I1
tp4294
a((I0
I1
I2
I3
I4
I5
I6
I7
tp4295
I1
tp4296
a((I0
I1
I2
I3
I4
I5
I6
I7
tp4297
I7
tp4298
a((I0
I1
I2
I3
I4
I5
I6
I7
tp4299
I7
tp4300
a((I1
I2
I3
I4
I7
tp4301
I4
tp4302
a((I0
I1
I2
I3
I4
I7
tp4303
I1
tp4304
a((I0
I1
I2
I3
I4
I7
tp4305
I5
tp4306
a((I0
I1
I2
I3
I4
I7
tp4307
I5
tp4308
a((I1
I2
I3
I4
I7
tp4309
I1
tp4310
a((I1
I2
I3
I4
I7
tp4311
I1
tp4312
a((I1
I2
I3
I4
I7
tp4313
I1
tp4314
a((I1
I2
I3
I4
I7
tp4315
I1
tp4316
a((I1
I2
I3
I4
I7
tp4317
I1
tp4318
a((I1
I2
I3
I4
I7
tp4319
I1
tp4320
a((I0
I1
I2
I3
I4
I5
I6
I7
tp4321
I7
tp4322
a((I0
I1
I2
I3
I4
I7
tp4323
I1
tp4324
a((I0
I1
I2
I3
I4
I7
tp4325
I1
tp4326
a((I0
I1
I2
I3
I4
I7
tp4327
I1
tp4328
a((I0
I1
I2
I3
I4
I7
tp4329
I1
tp4330
a((I1
I2
I3
I4
I7
tp4331
I4
tp4332
a((I1
I2
I3
I4
I7
tp4333
I0
tp4334
a((I1
I2
I3
I4
I7
tp4335
I1
tp4336
a((I1
I2
I3
I4
I7
tp4337
I1
tp4338
a((I0
I1
I2
I3
I4
I7
tp4339
I2
tp4340
a((I0
I1
I2
I3
I4
I7
tp4341
I5
tp4342
a((I1
I2
I3
I4
I7
tp4343
I4
tp4344
a((I1
I2
I3
I4
I7
tp4345
I4
tp4346
a((I1
I2
I3
I4
I5
I6
I7
tp4347
I6
tp4348
a((I0
I1
I2
I3
I4
I7
tp4349
I5
tp4350
a((I1
I2
I3
I4
I5
I6
I7
tp4351
I0
tp4352
a((I1
I2
I3
I4
I5
I6
I7
tp4353
I0
tp4354
a((I0
I1
I2
I3
I4
I7
tp4355
I5
tp4356
a((I1
I2
I3
I4
I7
tp4357
I1
tp4358
a((I1
I2
I3
I4
I7
tp4359
I1
tp4360
a((I1
I2
I3
I4
I5
I6
I7
tp4361
I0
tp4362
a((I1
I2
I3
I4
I7
tp4363
I4
tp4364
a((I1
I2
I3
I4
I7
tp4365
I0
tp4366
a((I1
I2
I3
I4
I7
tp4367
I4
tp4368
a((I1
I2
I3
I4
I5
I6
I7
tp4369
I0
tp4370
a((I0
I1
I2
I3
I4
I7
tp4371
I5
tp4372
a((I0
I1
I2
I3
I4
I5
I6
I7
tp4373
I7
tp4374
a((I0
I1
I2
I3
I4
I5
I6
I7
tp4375
I7
tp4376
a((I1
I2
I3
I4
I5
I6
I7
tp4377
I6
tp4378
a((I0
I1
I2
I3
I4
I5
I6
I7
tp4379
I2
tp4380
a((I0
I1
I2
I3
I4
I5
I6
I7
tp4381
I1
tp4382
a((I0
I1
I2
I3
I4
I5
I6
I7
tp4383
I7
tp4384
a((I1
I2
I3
I4
I7
tp4385
I4
tp4386
a((I1
I2
I3
I4
I7
tp4387
I0
tp4388
a((I1
I2
I3
I4
I7
tp4389
I0
tp4390
a((I1
I2
I3
I4
I7
tp4391
I4
tp4392
a((I1
I2
I3
I4
I7
tp4393
I0
tp4394
a((I1
I2
I3
I4
I7
tp4395
I0
tp4396
a((I1
I2
I3
I4
I7
tp4397
I1
tp4398
a((I1
I2
I3
I4
I7
tp4399
I1
tp4400
a((I0
I1
I2
I3
I4
I5
I6
I7
tp4401
I7
tp4402
a((I0
I1
I2
I3
I4
I5
I6
I7
tp4403
I7
tp4404
a((I0
I1
I2
I3
I4
I5
I6
I7
tp4405
I7
tp4406
a((I0
I1
I2
I3
I4
I5
I6
I7
tp4407
I1
tp4408
a((I0
I1
I2
I3
I4
I5
I6
I7
tp4409
I6
tp4410
a((I0
I1
I2
I3
I4
I5
I6
I7
tp4411
I7
tp4412
a((I0
I1
I2
I3
I4
I5
I6
I7
tp4413
I7
tp4414
a((I0
I1
I2
I3
I4
I5
I6
I7
tp4415
I7
tp4416
a((I0
I1
I2
I3
I4
I5
I6
I7
tp4417
I1
tp4418
a((I0
I1
I2
I3
I4
I7
tp4419
I5
tp4420
a((I0
I1
I2
I3
I4
I5
I7
tp4421
I2
tp4422
a((I0
I1
I2
I3
I4
I5
I7
tp4423
I2
tp4424
a((I0
I1
I2
I3
I4
I5
I6
I7
tp4425
I7
tp4426
a((I0
I1
I2
I3
I4
I5
I6
I7
tp4427
I7
tp4428
a((I0
I1
I2
I3
I4
I5
I6
I7
tp4429
I1
tp4430
a((I0
I1
I2
I3
I4
I5
I6
I7
tp4431
I2
tp4432
a((I0
I1
I2
I3
I4
I5
I7
tp4433
I5
tp4434
a((I0
I1
I2
I3
I4
I5
I6
I7
tp4435
I1
tp4436
a((I0
I1
I2
I3
I4
I5
I7
tp4437
I6
tp4438
a((I0
I1
I2
I3
I4
I5
I6
I7
tp4439
I2
tp4440
a((I0
I1
I2
I3
I4
I5
I7
tp4441
I6
tp4442
a((I1
I2
I3
I4
I7
tp4443
I1
tp4444
a((I1
I2
I3
I4
I7
tp4445
I1
tp4446
a((I0
I1
I2
I3
I4
I7
tp4447
I1
tp4448
a((I0
I1
I2
I3
I4
I5
I6
I7
tp4449
I7
tp4450
a((I0
I1
I2
I3
I4
I5
I6
I7
tp4451
I7
tp4452
a((I0
I1
I2
I3
I4
I5
I6
I7
tp4453
I7
tp4454
a((I0
I1
I2
I3
I4
I5
I6
I7
tp4455
I1
tp4456
a((I0
I1
I2
I3
I4
I5
I6
I7
tp4457
I1
tp4458
a((I0
I1
I2
I3
I4
I5
I6
I7
tp4459
I1
tp4460
a((I0
I1
I2
I3
I4
I5
I6
I7
tp4461
I1
tp4462
a((I0
I1
I2
I3
I4
I5
I6
I7
tp4463
I7
tp4464
a((I0
I1
I2
I3
I4
I5
I6
I7
tp4465
I7
tp4466
a((I0
I1
I2
I3
I4
I5
I6
I7
tp4467
I1
tp4468
a((I0
I1
I2
I3
I4
I5
I6
I7
tp4469
I1
tp4470
a((I0
I1
I2
I3
I4
I5
I6
I7
tp4471
I7
tp4472
a((I0
I1
I2
I3
I4
I7
tp4473
I1
tp4474
a((I0
I1
I2
I3
I4
I5
I6
I7
tp4475
I1
tp4476
a((I0
I1
I2
I3
I4
I5
I6
I7
tp4477
I7
tp4478
a((I0
I1
I2
I3
I4
I5
I6
I7
tp4479
I7
tp4480
a((I0
I1
I2
I3
I4
I5
I6
I7
tp4481
I2
tp4482
a((I0
I1
I2
I3
I4
I5
I6
I7
tp4483
I7
tp4484
a((I0
I1
I2
I3
I4
I5
I6
I7
tp4485
I7
tp4486
a((I0
I1
I2
I3
I4
I5
I6
I7
tp4487
I1
tp4488
a((I0
I1
I2
I3
I4
I5
I6
I7
tp4489
I2
tp4490
a((I0
I1
I2
I3
I4
I5
I6
I7
tp4491
I7
tp4492
a((I0
I1
I2
I3
I4
I5
I6
I7
tp4493
I7
tp4494
a((I0
I1
I2
I3
I4
I5
I6
I7
tp4495
I7
tp4496
a((I0
I1
I2
I3
I4
I5
I6
I7
tp4497
I7
tp4498
a((I1
I2
I3
I4
I7
tp4499
I4
tp4500
a((I0
I1
I2
I3
I4
I5
I7
tp4501
I2
tp4502
a((I0
I1
I2
I3
I4
I5
I6
I7
tp4503
I2
tp4504
a((I1
I2
I3
I4
I7
tp4505
I4
tp4506
a((I1
I2
I3
I4
I7
tp4507
I1
tp4508
a((I1
I2
I3
I4
I7
tp4509
I1
tp4510
a((I0
I1
I2
I3
I4
I5
I6
I7
tp4511
I2
tp4512
a((I0
I1
I2
I3
I4
I7
tp4513
I2
tp4514
a((I0
I1
I2
I3
I4
I5
I6
I7
tp4515
I2
tp4516
a((I1
I2
I3
I4
I7
tp4517
I0
tp4518
a((I1
I2
I3
I4
I7
tp4519
I0
tp4520
a((I1
I2
I3
I4
I7
tp4521
I0
tp4522
a((I1
I2
I3
I4
I7
tp4523
I0
tp4524
a((I1
I2
I3
I4
I7
tp4525
I0
tp4526
a((I1
I2
I3
I4
I7
tp4527
I0
tp4528
a((I0
I1
I2
I3
I4
I5
I6
I7
tp4529
I6
tp4530
a((I0
I1
I2
I3
I4
I5
I6
I7
tp4531
I6
tp4532
a((I1
I2
I3
I4
I7
tp4533
I1
tp4534
a((I0
I1
I2
I3
I4
I5
I6
I7
tp4535
I2
tp4536
a((I0
I1
I2
I3
I4
I7
tp4537
I5
tp4538
a((I0
I1
I2
I3
I4
I5
I6
I7
tp4539
I1
tp4540
a((I0
I1
I2
I3
I4
I5
I6
I7
tp4541
I1
tp4542
a((I0
I1
I2
I3
I4
I7
tp4543
I2
tp4544
a((I0
I1
I2
I3
I4
I7
tp4545
I2
tp4546
a((I0
I1
I2
I3
I4
I7
tp4547
I1
tp4548
a((I0
I1
I2
I3
I4
I7
tp4549
I1
tp4550
a((I0
I1
I2
I3
I4
I5
I6
I7
tp4551
I7
tp4552
a((I0
I1
I2
I3
I4
I5
I6
I7
tp4553
I7
tp4554
a((I0
I1
I2
I3
I4
I5
I6
I7
tp4555
I7
tp4556
a((I0
I1
I2
I3
I4
I7
tp4557
I5
tp4558
a((I0
I1
I2
I3
I4
I5
I6
I7
tp4559
I1
tp4560
a((I0
I1
I2
I3
I4
I7
tp4561
I5
tp4562
a((I0
I1
I2
I3
I4
I5
I6
I7
tp4563
I1
tp4564
a((I0
I1
I2
I3
I4
I5
I6
I7
tp4565
I1
tp4566
a((I0
I1
I2
I3
I4
I5
I6
I7
tp4567
I6
tp4568
a((I0
I1
I2
I3
I4
I7
tp4569
I5
tp4570
a((I0
I1
I2
I3
I4
I5
I6
I7
tp4571
I1
tp4572
a((I0
I1
I2
I3
I4
I5
I6
I7
tp4573
I7
tp4574
a((I0
I1
I2
I3
I4
I5
I6
I7
tp4575
I1
tp4576
a((I1
I2
I3
I4
I7
tp4577
I4
tp4578
a((I0
I1
I2
I3
I4
I5
I6
I7
tp4579
I1
tp4580
a((I0
I1
I2
I3
I4
I5
I6
I7
tp4581
I0
tp4582
a((I1
I2
I3
I4
I7
tp4583
I0
tp4584
a((I1
I2
I3
I4
I7
tp4585
I0
tp4586
a((I0
I1
I2
I3
I4
I5
I6
I7
tp4587
I7
tp4588
a((I0
I1
I2
I3
I4
I5
I6
tp4589
I1
tp4590
a((I0
I1
I2
I3
I4
I5
I6
I7
tp4591
I2
tp4592
a((I0
I1
I2
I3
I4
I5
I6
I7
tp4593
I2
tp4594
a((I0
I1
I2
I3
I4
I5
I6
I7
tp4595
I2
tp4596
a((I0
I1
I2
I3
I4
I5
I6
I7
tp4597
I7
tp4598
a((I0
I1
I2
I3
I4
I7
tp4599
I5
tp4600
a((I0
I1
I2
I3
I4
I5
I6
I7
tp4601
I7
tp4602
a((I0
I1
I2
I3
I4
I5
I6
I7
tp4603
I7
tp4604
a((I0
I1
I2
I3
I4
I5
I6
I7
tp4605
I7
tp4606
a((I0
I1
I2
I3
I4
I5
I6
I7
tp4607
I7
tp4608
a((I0
I1
I2
I3
I4
I5
I6
I7
tp4609
I2
tp4610
a((I0
I1
I2
I3
I4
I7
tp4611
I2
tp4612
a((I0
I1
I2
I3
I4
I5
I6
I7
tp4613
I2
tp4614
a((I0
I1
I2
I3
I4
I7
tp4615
I1
tp4616
a((I0
I1
I2
I3
I4
I5
I6
I7
tp4617
I2
tp4618
a((I0
I1
I2
I3
I4
I5
I6
I7
tp4619
I1
tp4620
a((I0
I1
I2
I3
I4
I5
I6
I7
tp4621
I1
tp4622
a((I0
I1
I2
I3
I4
I5
I6
I7
tp4623
I7
tp4624
a((I0
I1
I2
I3
I4
I7
tp4625
I5
tp4626
a((I0
I1
I2
I3
I4
I5
I7
tp4627
I1
tp4628
a((I0
I1
I2
I3
I4
I5
I7
tp4629
I1
tp4630
a((I0
I1
I2
I3
I4
I5
I7
tp4631
I6
tp4632
a((I0
I1
I2
I3
I4
I5
I6
I7
tp4633
I7
tp4634
a((I0
I1
I2
I3
I4
I5
I6
I7
tp4635
I1
tp4636
a((I0
I1
I2
I3
I4
I5
I6
I7
tp4637
I1
tp4638
a((I0
I1
I2
I3
I4
I5
I6
I7
tp4639
I2
tp4640
a((I0
I1
I2
I3
I4
I7
tp4641
I5
tp4642
a((I0
I1
I2
I3
I4
I5
I6
I7
tp4643
I6
tp4644
a((I0
I1
I2
I3
I4
I5
I6
I7
tp4645
I7
tp4646
a((I0
I1
I2
I3
I4
I5
I6
I7
tp4647
I7
tp4648
a((I0
I1
I2
I3
I4
I5
I7
tp4649
I2
tp4650
a((I0
I1
I2
I3
I4
I5
I7
tp4651
I2
tp4652
a((I0
I1
I2
I3
I4
I7
tp4653
I2
tp4654
a((I0
I1
I2
I3
I4
I5
I7
tp4655
I2
tp4656
a((I0
I1
I2
I3
I4
I5
I6
I7
tp4657
I7
tp4658
a((I0
I1
I2
I3
I4
I5
I7
tp4659
I6
tp4660
a((I0
I1
I2
I3
I4
I5
I6
I7
tp4661
I7
tp4662
a((I0
I1
I2
I3
I4
I7
tp4663
I2
tp4664
a((I0
I1
I2
I3
I4
I7
tp4665
I2
tp4666
a((I0
I1
I2
I3
I4
I5
I6
I7
tp4667
I1
tp4668
a((I0
I1
I2
I3
I4
I7
tp4669
I2
tp4670
a((I0
I1
I2
I3
I4
I7
tp4671
I5
tp4672
a((I0
I1
I2
I3
I4
I5
I7
tp4673
I6
tp4674
a((I0
I1
I2
I3
I4
I5
I6
I7
tp4675
I7
tp4676
a((I0
I1
I2
I3
I4
I5
I6
I7
tp4677
I1
tp4678
a((I0
I1
I2
I3
I4
I5
I7
tp4679
I1
tp4680
a((I0
I1
I2
I3
I4
I7
tp4681
I5
tp4682
a((I0
I1
I2
I3
I4
I5
I6
I7
tp4683
I1
tp4684
a((I0
I1
I2
I3
I4
I5
I6
I7
tp4685
I7
tp4686
a((I1
I2
I3
I4
I7
tp4687
I0
tp4688
a((I0
I1
I2
I3
I4
I5
I6
I7
tp4689
I1
tp4690
a((I0
I1
I2
I3
I4
I5
I6
I7
tp4691
I1
tp4692
a((I0
I1
I2
I3
I4
I5
I6
I7
tp4693
I7
tp4694
a((I0
I1
I2
I3
I4
I5
I6
I7
tp4695
I7
tp4696
a((I0
I1
I2
I3
I4
I7
tp4697
I5
tp4698
a((I0
I1
I2
I3
I4
I7
tp4699
I1
tp4700
a((I0
I1
I2
I3
I4
I5
I6
I7
tp4701
I1
tp4702
a((I0
I1
I2
I3
I4
I5
I6
I7
tp4703
I7
tp4704
a((I0
I1
I2
I3
I4
I5
I6
I7
tp4705
I6
tp4706
a((I0
I1
I2
I3
I4
I5
I6
I7
tp4707
I7
tp4708
a((I0
I1
I2
I3
I4
I5
I6
I7
tp4709
I7
tp4710
a((I0
I1
I2
I3
I4
I5
I6
I7
tp4711
I7
tp4712
a((I0
I1
I2
I3
I4
I7
tp4713
I1
tp4714
a((I0
I1
I2
I3
I4
I5
I6
I7
tp4715
I7
tp4716
a((I1
I2
I3
I4
I7
tp4717
I4
tp4718
a((I1
I2
I3
I4
I5
I6
I7
tp4719
I0
tp4720
a((I1
I2
I3
I4
tp4721
I1
tp4722
a((I0
I1
I2
I3
I4
I7
tp4723
I5
tp4724
a((I0
I1
I2
I3
I4
I7
tp4725
I1
tp4726
a((I0
I1
I2
I3
I4
I7
tp4727
I5
tp4728
a((I0
I1
I2
I3
I4
I5
I6
I7
tp4729
I6
tp4730
a((I0
I1
I2
I3
I4
I5
I6
I7
tp4731
I6
tp4732
a((I0
I1
I2
I3
I4
I5
I6
I7
tp4733
I6
tp4734
a((I0
I1
I2
I3
I4
I5
I6
I7
tp4735
I1
tp4736
a((I0
I1
I2
I3
I4
I7
tp4737
I2
tp4738
a((I0
I1
I2
I3
I4
I7
tp4739
I5
tp4740
a((I0
I1
I2
I3
I4
I7
tp4741
I5
tp4742
a((I0
I1
I2
I3
I4
I7
tp4743
I5
tp4744
a((I0
I1
I2
I3
I4
I7
tp4745
I2
tp4746
a((I0
I1
I2
I3
I4
I7
tp4747
I1
tp4748
a((I0
I1
I2
I3
I4
I7
tp4749
I1
tp4750
a((I0
I1
I2
I3
I4
I5
I6
I7
tp4751
I7
tp4752
a((I0
I1
I2
I3
I4
I5
I7
tp4753
I1
tp4754
a((I0
I1
I2
I3
I4
I7
tp4755
I5
tp4756
a((I0
I1
I2
I3
I4
I5
I7
tp4757
I6
tp4758
a((I0
I1
I2
I3
I4
I7
tp4759
I5
tp4760
a((I0
I1
I2
I3
I4
I5
I6
I7
tp4761
I7
tp4762
a((I0
I1
I2
I3
I4
I7
tp4763
I5
tp4764
a((I1
I2
I3
I4
I7
tp4765
I0
tp4766
a((I0
I1
I2
I3
I4
I7
tp4767
I5
tp4768
a((I0
I1
I2
I3
I4
I5
I6
I7
tp4769
I2
tp4770
a((I0
I1
I2
I3
I4
I7
tp4771
I2
tp4772
a((I1
I2
I3
I4
I7
tp4773
I4
tp4774
a((I0
I1
I2
I3
I4
I7
tp4775
I2
tp4776
a((I0
I1
I2
I3
I4
I7
tp4777
I5
tp4778
a((I0
I1
I2
I3
I4
I7
tp4779
I5
tp4780
a((I1
I2
I3
I4
I7
tp4781
I0
tp4782
a((I0
I1
I2
I3
I4
I5
I6
I7
tp4783
I1
tp4784
a((I0
I1
I2
I3
I4
I5
I6
I7
tp4785
I7
tp4786
a((I0
I1
I2
I3
I4
I5
I7
tp4787
I6
tp4788
a((I0
I1
I2
I3
I4
I5
I7
tp4789
I6
tp4790
a((I0
I1
I2
I3
I4
I5
I7
tp4791
I5
tp4792
a((I0
I1
I2
I3
I4
I7
tp4793
I2
tp4794
a((I0
I1
I2
I3
I4
I7
tp4795
I2
tp4796
a((I0
I1
I2
I3
I4
I7
tp4797
I1
tp4798
a((I0
I1
I2
I3
I4
tp4799
I0
tp4800
a((I0
I1
I2
I3
I4
I5
I6
I7
tp4801
I2
tp4802
a((I0
I1
I2
I3
I4
I5
I6
I7
tp4803
I2
tp4804
a((I0
I1
I2
I3
I4
I5
I6
I7
tp4805
I2
tp4806
a((I0
I1
I2
I3
I4
I5
I6
I7
tp4807
I2
tp4808
a((I0
I1
I2
I3
I4
I5
I6
I7
tp4809
I2
tp4810
a((I0
I1
I2
I3
I4
I7
tp4811
I1
tp4812
a((I0
I1
I2
I3
I4
I7
tp4813
I1
tp4814
a((I0
I1
I2
I3
I4
I5
I6
I7
tp4815
I7
tp4816
a((I0
I1
I2
I3
I4
I7
tp4817
I1
tp4818
a((I0
I1
I2
I3
I4
I7
tp4819
I5
tp4820
a((I0
I1
I2
I3
I4
I7
tp4821
I5
tp4822
a((I0
I1
I2
I3
I4
I7
tp4823
I1
tp4824
a((I0
I1
I2
I3
I4
I5
I6
I7
tp4825
I6
tp4826
a((I0
I1
I2
I3
I4
I5
I6
I7
tp4827
I7
tp4828
a((I0
I1
I2
I3
I4
I5
I6
I7
tp4829
I1
tp4830
a((I0
I1
I2
I3
I4
I5
I6
I7
tp4831
I1
tp4832
a((I0
I1
I2
I3
I4
I5
I6
I7
tp4833
I7
tp4834
a((I0
I1
I2
I3
I4
I5
I6
I7
tp4835
I1
tp4836
a((I0
I1
I2
I3
I4
I5
I6
I7
tp4837
I1
tp4838
a((I0
I1
I2
I3
I4
I5
I6
I7
tp4839
I7
tp4840
a((I0
I1
I2
I3
I4
I5
I6
I7
tp4841
I7
tp4842
a((I0
I1
I2
I3
I4
I5
I6
I7
tp4843
I7
tp4844
a((I0
I1
I2
I3
I4
I7
tp4845
I1
tp4846
a((I0
I1
I2
I3
I4
I5
I6
I7
tp4847
I7
tp4848
a((I0
I1
I2
I3
I4
I5
I6
I7
tp4849
I7
tp4850
a((I0
I1
I2
I3
I4
I5
I6
I7
tp4851
I7
tp4852
a((I0
I1
I2
I3
I4
I7
tp4853
I5
tp4854
a((I0
I1
I2
I3
I4
I5
I6
I7
tp4855
I7
tp4856
a((I0
I1
I2
I3
I4
I5
I6
I7
tp4857
I7
tp4858
a((I0
I1
I2
I3
I4
I5
I6
I7
tp4859
I7
tp4860
a((I0
I1
I2
I3
I4
I5
I6
I7
tp4861
I7
tp4862
a((I0
I1
I2
I3
I4
I5
I6
I7
tp4863
I1
tp4864
a((I0
I1
I2
I3
I4
I7
tp4865
I5
tp4866
a((I0
I1
I2
I3
I4
I7
tp4867
I5
tp4868
a((I0
I1
I2
I3
I4
tp4869
I1
tp4870
a((I0
I1
I2
I3
I4
I7
tp4871
I1
tp4872
a((I0
I1
I2
I3
I4
I5
I6
I7
tp4873
I7
tp4874
a((I0
I1
I2
I3
I4
I7
tp4875
I1
tp4876
a((I0
I1
I2
I3
I4
I7
tp4877
I2
tp4878
a((I0
I1
I2
I3
I4
I5
I6
I7
tp4879
I7
tp4880
a((I0
I1
I2
I3
I4
I5
I6
I7
tp4881
I7
tp4882
a((I0
I1
I2
I3
I4
I7
tp4883
I5
tp4884
a((I1
I2
I3
I4
I7
tp4885
I0
tp4886
a((I1
I2
I3
I4
I5
I7
tp4887
I5
tp4888
a((I0
I1
I2
I3
I4
I5
I6
I7
tp4889
I7
tp4890
a((I0
I1
I2
I3
I4
I7
tp4891
I1
tp4892
a((I0
I1
I2
I3
I4
I7
tp4893
I1
tp4894
a((I0
I1
I2
I3
I4
I5
I6
I7
tp4895
I7
tp4896
a((I0
I1
I2
I3
I4
I7
tp4897
I1
tp4898
a((I0
I1
I2
I3
I4
I5
I6
I7
tp4899
I7
tp4900
a((I0
I1
I2
I3
I4
I5
I6
I7
tp4901
I7
tp4902
a((I0
I1
I2
I3
I4
I7
tp4903
I5
tp4904
a((I0
I1
I2
I3
I4
I5
I6
I7
tp4905
I7
tp4906
a((I0
I1
I2
I3
I4
I5
I6
I7
tp4907
I7
tp4908
a((I0
I1
I2
I3
I4
I7
tp4909
I5
tp4910
a((I0
I1
I2
I3
I4
I7
tp4911
I5
tp4912
a((I1
I2
I3
I4
I7
tp4913
I4
tp4914
a((I0
I1
I2
I3
I4
I7
tp4915
I5
tp4916
a((I0
I1
I2
I3
I4
I5
I7
tp4917
I6
tp4918
a((I0
I1
I2
I3
I4
I5
I6
I7
tp4919
I7
tp4920
a((I0
I1
I2
I3
I4
I7
tp4921
I1
tp4922
a((I0
I1
I2
I3
I4
I5
I7
tp4923
I6
tp4924
a((I0
I1
I2
I3
I4
I7
tp4925
I5
tp4926
a((I0
I1
I2
I3
I4
I5
I7
tp4927
I6
tp4928
a((I0
I1
I2
I3
I4
I5
I7
tp4929
I2
tp4930
a((I0
I1
I2
I3
I4
I5
I7
tp4931
I2
tp4932
a((I1
I2
I3
I4
I7
tp4933
I0
tp4934
a((I0
I1
I2
I3
I4
I5
I7
tp4935
I6
tp4936
a((I0
I1
I2
I3
I4
I7
tp4937
I5
tp4938
a((I1
I2
I3
I4
I7
tp4939
I4
tp4940
a((I0
I1
I2
I3
I4
I7
tp4941
I2
tp4942
a((I0
I1
I2
I3
I4
I7
tp4943
I5
tp4944
a((I0
I1
I2
I3
I4
I7
tp4945
I1
tp4946
a((I0
I1
I2
I3
I4
I7
tp4947
I5
tp4948
a((I0
I1
I2
I3
I4
I7
tp4949
I5
tp4950
a((I0
I1
I2
I3
I4
I5
I7
tp4951
I6
tp4952
a((I0
I1
I2
I3
I4
I5
I7
tp4953
I6
tp4954
a((I1
I2
I3
I4
I7
tp4955
I4
tp4956
a((I1
I2
I3
I4
I7
tp4957
I4
tp4958
a((I0
I1
I2
I3
I4
I7
tp4959
I5
tp4960
a((I0
I1
I2
I3
I4
I5
I6
I7
tp4961
I7
tp4962
a((I1
I2
I3
I4
I7
tp4963
I4
tp4964
a((I0
I1
I2
I3
I4
I7
tp4965
I2
tp4966
a((I0
I1
I2
I3
I4
I5
I7
tp4967
I6
tp4968
a((I0
I1
I2
I3
I4
I5
I7
tp4969
I6
tp4970
a((I0
I1
I2
I3
I4
I5
I7
tp4971
I1
tp4972
a((I0
I1
I2
I3
I4
I7
tp4973
I2
tp4974
a((I1
I2
I3
I4
I7
tp4975
I0
tp4976
a((I1
I2
I3
I4
I7
tp4977
I0
tp4978
a((I0
I1
I2
I3
I4
I5
I6
I7
tp4979
I3
tp4980
a((I0
I1
I2
I3
I4
I5
I6
I7
tp4981
I4
tp4982
a((I0
I1
I2
I3
I4
I5
I6
I7
tp4983
I4
tp4984
a((I0
I1
I2
I3
I4
I5
I6
I7
tp4985
I3
tp4986
a((I0
I1
I2
I3
I4
I5
I6
I7
tp4987
I3
tp4988
a((I0
I1
I2
I3
I4
I5
I7
tp4989
I3
tp4990
a((I0
I1
I2
I3
I4
I7
tp4991
I3
tp4992
a((I0
I1
I2
I3
I4
I5
I6
I7
tp4993
I3
tp4994
a((I0
I1
I2
I3
I4
I7
tp4995
I3
tp4996
a((I0
I1
I2
I3
I4
I7
tp4997
I3
tp4998
a((I0
I1
I2
I3
I4
I5
I6
I7
tp4999
I3
tp5000
a((I0
I1
I2
I3
I4
I5
I7
tp5001
I3
tp5002
a((I0
I1
I2
I3
I4
I5
I7
tp5003
I3
tp5004
a((I0
I1
I2
I3
I4
I5
I7
tp5005
I4
tp5006
a((I0
I1
I2
I3
I4
I5
I6
I7
tp5007
I3
tp5008
a((I0
I1
I2
I3
I4
I7
tp5009
I3
tp5010
a((I0
I1
I2
I3
I4
I7
tp5011
I3
tp5012
a((I0
I1
I2
I3
I4
I5
I6
I7
tp5013
I3
tp5014
a((I0
I1
I2
I3
I4
I5
I6
I7
tp5015
I3
tp5016
a((I0
I1
I2
I3
I4
I5
I6
I7
tp5017
I3
tp5018
a((I0
I1
I2
I3
I4
I7
tp5019
I3
tp5020
a((I0
I1
I2
I3
I4
I7
tp5021
I3
tp5022
a((I0
I1
I2
I3
I4
I5
I6
I7
tp5023
I3
tp5024
a((I0
I1
I2
I3
I4
I7
tp5025
I3
tp5026
a((I0
I1
I2
I3
I4
I7
tp5027
I3
tp5028
a((I0
I1
I2
I3
I4
I5
I6
I7
tp5029
I3
tp5030
a((I0
I1
I2
I3
I4
I5
I6
I7
tp5031
I3
tp5032
a((I0
I1
I2
I3
I4
I5
I7
tp5033
I4
tp5034
a((I0
I1
I2
I3
I4
I5
I6
I7
tp5035
I3
tp5036
a((I0
I1
I2
I3
I4
I5
I6
I7
tp5037
I3
tp5038
a((I0
I1
I2
I3
I4
I5
I6
I7
tp5039
I4
tp5040
a((I0
I1
I2
I3
I4
I5
I6
I7
tp5041
I3
tp5042
a((I0
I1
I2
I3
I4
I7
tp5043
I3
tp5044
a((I0
I1
I2
I3
I4
I7
tp5045
I3
tp5046
a((I0
I1
I2
I3
I4
I7
tp5047
I4
tp5048
a((I0
I1
I2
I3
I4
I7
tp5049
I4
tp5050
a((I0
I1
I2
I3
I4
I7
tp5051
I3
tp5052
a((I0
I1
I2
I3
I4
I5
I7
tp5053
I3
tp5054
a((I0
I1
I2
I3
I4
I5
I6
I7
tp5055
I3
tp5056
a((I0
I1
I2
I3
I4
I7
tp5057
I3
tp5058
a((I0
I1
I2
I3
I4
I5
I6
I7
tp5059
I4
tp5060
a((I0
I1
I2
I3
I4
I5
I6
I7
tp5061
I3
tp5062
a((I0
I1
I2
I3
I4
I5
I6
I7
tp5063
I3
tp5064
a((I0
I1
I2
I3
I4
I5
I6
I7
tp5065
I4
tp5066
a((I0
I1
I2
I3
I4
I5
I6
I7
tp5067
I3
tp5068
a((I0
I1
I2
I3
I4
I5
I6
I7
tp5069
I3
tp5070
a((I0
I1
I2
I3
I4
I7
tp5071
I3
tp5072
a((I0
I1
I2
I3
I4
I5
I6
I7
tp5073
I3
tp5074
a((I0
I1
I2
I3
I4
I5
I6
I7
tp5075
I4
tp5076
a((I0
I1
I2
I3
I4
I5
I6
I7
tp5077
I3
tp5078
a((I0
I1
I2
I3
I4
I5
I6
I7
tp5079
I3
tp5080
a((I0
I1
I2
I3
I4
I5
I7
tp5081
I4
tp5082
a((I0
I1
I2
I3
I4
I7
tp5083
I3
tp5084
a((I0
I1
I2
I3
I4
I5
I6
I7
tp5085
I3
tp5086
a((I0
I1
I2
I3
I4
I7
tp5087
I3
tp5088
a((I0
I1
I2
I3
I4
I7
tp5089
I3
tp5090
a((I0
I1
I2
I3
I4
I7
tp5091
I3
tp5092
a((I0
I1
I2
I3
I4
tp5093
I3
tp5094
a((I0
I1
I2
I3
I4
I5
I6
I7
tp5095
I3
tp5096
a((I0
I1
I2
I3
I4
I5
I6
I7
tp5097
I3
tp5098
a((I0
I1
I2
I3
I4
I5
I6
I7
tp5099
I3
tp5100
a((I0
I1
I2
I3
I4
I5
I7
tp5101
I3
tp5102
a((I0
I1
I2
I3
I4
I7
tp5103
I3
tp5104
a((I0
I1
I2
I3
I4
I5
I6
I7
tp5105
I3
tp5106
a((I0
I1
I2
I3
I4
I5
I6
I7
tp5107
I3
tp5108
a((I0
I1
I2
I3
I4
I5
I6
I7
tp5109
I3
tp5110
a((I0
I1
I2
I3
I4
I7
tp5111
I3
tp5112
a((I0
I1
I2
I3
I4
I5
I7
tp5113
I3
tp5114
a((I0
I1
I2
I3
I4
I5
I6
I7
tp5115
I3
tp5116
a((I0
I1
I2
I3
I4
I7
tp5117
I4
tp5118
a((I0
I1
I2
I3
I4
I7
tp5119
I3
tp5120
a((I0
I1
I2
I3
I4
I7
tp5121
I3
tp5122
a((I0
I1
I2
I3
I4
I5
I6
I7
tp5123
I3
tp5124
a((I0
I1
I2
I3
I4
I7
tp5125
I4
tp5126
a((I0
I1
I2
I3
I4
I7
tp5127
I4
tp5128
a((I0
I1
I2
I3
I4
I5
I6
I7
tp5129
I4
tp5130
a((I0
I1
I2
I3
I4
I5
I6
I7
tp5131
I3
tp5132
a((I0
I1
I2
I3
I4
I5
I6
I7
tp5133
I4
tp5134
a((I0
I1
I2
I3
I4
I5
I6
I7
tp5135
I4
tp5136
a((I0
I1
I2
I3
I4
I5
I6
I7
tp5137
I3
tp5138
a((I0
I1
I2
I3
I4
I5
I6
I7
tp5139
I3
tp5140
a((I0
I1
I2
I3
I4
I7
tp5141
I3
tp5142
a((I0
I1
I2
I3
I4
I5
I6
I7
tp5143
I4
tp5144
a((I0
I1
I2
I3
I4
I5
I6
I7
tp5145
I3
tp5146
a((I0
I1
I2
I3
I4
I5
I6
I7
tp5147
I3
tp5148
a((I0
I1
I2
I3
I4
I7
tp5149
I4
tp5150
a((I0
I1
I2
I3
I4
I5
I6
I7
tp5151
I3
tp5152
a((I0
I1
I2
I3
I4
I7
tp5153
I3
tp5154
a((I0
I1
I2
I3
I4
I7
tp5155
I3
tp5156
a((I0
I1
I2
I3
I4
I5
I6
I7
tp5157
I4
tp5158
a((I0
I1
I2
I3
I4
I5
I6
I7
tp5159
I3
tp5160
a((I0
I1
I2
I3
I4
I5
I6
I7
tp5161
I3
tp5162
a((I0
I1
I2
I3
I4
I5
I6
I7
tp5163
I3
tp5164
a((I0
I1
I2
I3
I4
I7
tp5165
I3
tp5166
a((I0
I1
I2
I3
I4
I7
tp5167
I4
tp5168
a((I0
I1
I2
I3
I4
I5
I6
I7
tp5169
I3
tp5170
a((I0
I1
I2
I3
I4
I5
I6
I7
tp5171
I3
tp5172
a((I0
I1
I2
I3
I4
I5
I6
I7
tp5173
I3
tp5174
a((I0
I1
I2
I3
I4
I5
I6
I7
tp5175
I3
tp5176
a((I0
I1
I2
I3
I4
I7
tp5177
I3
tp5178
a((I0
I1
I2
I3
I4
I5
I6
I7
tp5179
I3
tp5180
a((I0
I1
I2
I3
I4
I5
I6
I7
tp5181
I3
tp5182
a((I0
I1
I2
I3
I4
I5
I6
I7
tp5183
I3
tp5184
a((I0
I1
I2
I3
I4
I5
I6
I7
tp5185
I3
tp5186
a((I0
I1
I2
I3
I4
I5
I6
I7
tp5187
I3
tp5188
a((I0
I1
I2
I3
I4
I5
I6
I7
tp5189
I3
tp5190
a((I0
I1
I2
I3
I4
I7
tp5191
I3
tp5192
a((I0
I1
I2
I3
I4
I5
I6
I7
tp5193
I3
tp5194
a((I0
I1
I2
I3
I4
I7
tp5195
I3
tp5196
a((I0
I1
I2
I3
I4
I5
I6
I7
tp5197
I3
tp5198
a((I0
I1
I2
I3
I4
I5
I6
I7
tp5199
I3
tp5200
a((I0
I1
I2
I3
I4
I7
tp5201
I3
tp5202
a((I0
I1
I2
I3
I4
I7
tp5203
I3
tp5204
a((I1
I2
I3
I4
I5
I6
I7
tp5205
I2
tp5206
a((I1
I2
I3
I4
I5
I6
I7
tp5207
I2
tp5208
a((I0
I1
I2
I3
I4
I5
I6
I7
tp5209
I3
tp5210
a((I0
I1
I2
I3
I4
I7
tp5211
I3
tp5212
a((I0
I1
I2
I3
I4
I7
tp5213
I3
tp5214
a((I0
I1
I2
I3
I4
I7
tp5215
I3
tp5216
a((I0
I1
I2
I3
I4
I7
tp5217
I3
tp5218
a((I0
I1
I2
I3
I4
I5
I6
I7
tp5219
I3
tp5220
a((I0
I1
I2
I3
I4
I5
I6
I7
tp5221
I3
tp5222
a((I0
I1
I2
I3
I4
I5
I6
I7
tp5223
I4
tp5224
a((I0
I1
I2
I3
I4
I5
I6
I7
tp5225
I3
tp5226
a((I0
I1
I2
I3
I4
I5
I6
I7
tp5227
I3
tp5228
a((I0
I1
I2
I3
I4
I7
tp5229
I3
tp5230
a((I0
I1
I2
I3
I4
I5
I6
I7
tp5231
I3
tp5232
a((I0
I1
I2
I3
I4
I5
I6
I7
tp5233
I3
tp5234
a((I0
I1
I2
I3
I4
I5
I6
I7
tp5235
I3
tp5236
a((I0
I1
I2
I3
I4
I7
tp5237
I3
tp5238
a((I0
I1
I2
I3
I4
I5
I6
I7
tp5239
I3
tp5240
a((I0
I1
I2
I3
I4
I5
I6
I7
tp5241
I3
tp5242
a((I0
I1
I2
I3
I4
I7
tp5243
I4
tp5244
a((I0
I1
I2
I3
I4
I7
tp5245
I4
tp5246
a((I0
I1
I2
I3
I4
I5
I6
I7
tp5247
I3
tp5248
a((I0
I1
I2
I3
I4
I5
I6
I7
tp5249
I3
tp5250
a((I0
I1
I2
I3
I4
I5
I6
I7
tp5251
I3
tp5252
a((I0
I1
I2
I3
I4
I7
tp5253
I3
tp5254
a((I0
I1
I2
I3
I4
I7
tp5255
I3
tp5256
a((I0
I1
I2
I3
I4
I5
I6
I7
tp5257
I4
tp5258
a((I0
I1
I2
I3
I4
I5
I6
I7
tp5259
I3
tp5260
a((I0
I1
I2
I3
I4
I5
I6
I7
tp5261
I3
tp5262
a((I0
I1
I2
I3
I4
I5
I6
I7
tp5263
I3
tp5264
a((I0
I1
I2
I3
I4
I5
I6
I7
tp5265
I3
tp5266
a((I0
I1
I2
I3
I4
I5
I6
I7
tp5267
I3
tp5268
a((I0
I1
I2
I3
I4
I7
tp5269
I4
tp5270
a((I0
I1
I2
I3
I4
I5
I6
I7
tp5271
I3
tp5272
a((I0
I1
I2
I3
I4
I5
I6
I7
tp5273
I3
tp5274
a((I0
I1
I2
I3
I4
I7
tp5275
I3
tp5276
a((I0
I1
I2
I3
I4
I5
I6
I7
tp5277
I3
tp5278
a((I0
I1
I2
I3
I4
I7
tp5279
I3
tp5280
a((I0
I1
I2
I3
I4
I7
tp5281
I3
tp5282
a((I0
I1
I2
I3
I4
I7
tp5283
I3
tp5284
a((I0
I1
I2
I3
I4
I5
I6
I7
tp5285
I3
tp5286
a((I0
I1
I2
I3
I4
I5
I6
I7
tp5287
I4
tp5288
a((I0
I1
I2
I3
I4
I5
I6
I7
tp5289
I3
tp5290
a((I0
I1
I2
I3
I4
I5
I6
I7
tp5291
I3
tp5292
a((I0
I1
I2
I3
I4
I5
I6
I7
tp5293
I3
tp5294
a((I0
I1
I2
I3
I4
I7
tp5295
I3
tp5296
a((I0
I1
I2
I3
I4
I7
tp5297
I3
tp5298
a((I0
I1
I2
I3
I4
I7
tp5299
I3
tp5300
a((I0
I1
I2
I3
I4
I7
tp5301
I3
tp5302
a((I0
I1
I2
I3
I4
I7
tp5303
I3
tp5304
a((I0
I1
I2
I3
I4
I7
tp5305
I4
tp5306
a((I0
I1
I2
I3
I4
I5
I6
I7
tp5307
I3
tp5308
a((I0
I1
I2
I3
I4
I5
I6
I7
tp5309
I4
tp5310
a((I0
I1
I2
I3
I4
I5
I6
I7
tp5311
I4
tp5312
a((I0
I1
I2
I3
I4
I7
tp5313
I3
tp5314
a((I0
I1
I2
I3
I4
I5
I6
I7
tp5315
I3
tp5316
a((I0
I1
I2
I3
I4
I5
I7
tp5317
I3
tp5318
a((I0
I1
I2
I3
I4
I5
I6
I7
tp5319
I3
tp5320
a((I0
I1
I2
I3
I4
I7
tp5321
I3
tp5322
a((I0
I1
I2
I3
I4
I7
tp5323
I3
tp5324
a((I0
I1
I2
I3
I4
I5
I6
I7
tp5325
I3
tp5326
a((I0
I1
I2
I3
I4
I7
tp5327
I3
tp5328
a((I0
I1
I2
I3
I4
I7
tp5329
I3
tp5330
a((I0
I1
I2
I3
I4
I7
tp5331
I3
tp5332
a((I0
I1
I2
I3
I4
I5
I6
I7
tp5333
I4
tp5334
a((I0
I1
I2
I3
I4
I5
I7
tp5335
I3
tp5336
a((I0
I1
I2
I3
I4
I5
I6
I7
tp5337
I3
tp5338
a((I0
I1
I2
I3
I4
I5
I7
tp5339
I3
tp5340
a((I0
I1
I2
I3
I4
I5
I6
I7
tp5341
I3
tp5342
a((I0
I1
I2
I3
I4
I5
I6
I7
tp5343
I3
tp5344
a((I0
I1
I2
I3
I4
I7
tp5345
I3
tp5346
a((I0
I1
I2
I3
I4
I5
I6
I7
tp5347
I4
tp5348
a((I0
I1
I2
I3
I4
I5
I6
I7
tp5349
I3
tp5350
a((I0
I1
I2
I3
I4
I7
tp5351
I4
tp5352
a((I0
I1
I2
I3
I4
I7
tp5353
I4
tp5354
a((I0
I1
I2
I3
I4
I5
I6
I7
tp5355
I3
tp5356
a((I0
I1
I2
I3
I4
I5
I6
I7
tp5357
I3
tp5358
a((I0
I1
I2
I3
I4
I7
tp5359
I3
tp5360
a((I0
I1
I2
I3
I4
I7
tp5361
I3
tp5362
a((I0
I1
I2
I3
I4
I7
tp5363
I3
tp5364
a((I0
I1
I2
I3
I4
I5
I6
I7
tp5365
I3
tp5366
a((I0
I1
I2
I3
I4
I5
I6
I7
tp5367
I3
tp5368
a((I0
I1
I2
I3
I4
I5
I6
I7
tp5369
I3
tp5370
a((I0
I1
I2
I3
I4
I5
I6
I7
tp5371
I3
tp5372
a((I0
I1
I2
I3
I4
I7
tp5373
I3
tp5374
a((I0
I1
I2
I3
I4
I7
tp5375
I3
tp5376
a((I0
I1
I2
I3
I4
I7
tp5377
I3
tp5378
a((I0
I1
I2
I3
I4
I5
I7
tp5379
I3
tp5380
a((I0
I1
I2
I3
I4
I5
I6
I7
tp5381
I3
tp5382
a((I0
I1
I2
I3
I4
I5
I6
I7
tp5383
I3
tp5384
a((I0
I1
I2
I3
I4
I5
I6
I7
tp5385
I3
tp5386
a((I0
I1
I2
I3
I4
I5
I6
I7
tp5387
I3
tp5388
a((I0
I1
I2
I3
I4
I7
tp5389
I3
tp5390
a((I0
I1
I2
I3
I4
I7
tp5391
I3
tp5392
a((I0
I1
I2
I3
I4
I7
tp5393
I3
tp5394
a((I0
I1
I2
I3
I4
I5
I6
I7
tp5395
I4
tp5396
a((I0
I1
I2
I3
I4
I5
I6
I7
tp5397
I4
tp5398
a((I0
I1
I2
I3
I4
I7
tp5399
I3
tp5400
a((I0
I1
I2
I3
I4
I7
tp5401
I3
tp5402
a((I0
I1
I2
I3
I4
I5
I6
I7
tp5403
I3
tp5404
a((I0
I1
I2
I3
I4
I7
tp5405
I3
tp5406
a((I0
I1
I2
I3
I4
I5
I6
I7
tp5407
I3
tp5408
a((I0
I1
I2
I3
I4
I5
I6
I7
tp5409
I3
tp5410
a((I0
I1
I2
I3
I4
I5
I6
I7
tp5411
I4
tp5412
a((I0
I1
I2
I3
I4
I7
tp5413
I3
tp5414
a((I0
I1
I2
I3
I4
I7
tp5415
I3
tp5416
a((I0
I1
I2
I3
I4
I7
tp5417
I3
tp5418
a((I0
I1
I2
I3
I4
I7
tp5419
I4
tp5420
a((I0
I1
I2
I3
I4
I7
tp5421
I3
tp5422
a((I0
I1
I2
I3
I4
I5
I6
I7
tp5423
I3
tp5424
a((I0
I1
I2
I3
I4
I5
I6
I7
tp5425
I3
tp5426
a((I0
I1
I2
I3
I4
I5
I6
I7
tp5427
I3
tp5428
a((I0
I1
I2
I3
I4
I5
I6
I7
tp5429
I3
tp5430
a((I0
I1
I2
I3
I4
I7
tp5431
I3
tp5432
a((I0
I1
I2
I3
I4
I7
tp5433
I4
tp5434
a((I0
I1
I2
I3
I4
I7
tp5435
I3
tp5436
a((I0
I1
I2
I3
I4
I5
I6
I7
tp5437
I3
tp5438
a((I0
I1
I2
I3
I4
I5
I6
I7
tp5439
I4
tp5440
a((I0
I1
I2
I3
I4
I5
I6
I7
tp5441
I3
tp5442
a((I0
I1
I2
I3
I4
I5
I6
I7
tp5443
I3
tp5444
a((I0
I1
I2
I3
I4
I5
I6
I7
tp5445
I3
tp5446
a((I0
I1
I2
I3
I4
I5
I6
I7
tp5447
I3
tp5448
a((I0
I1
I2
I3
I4
I5
I6
I7
tp5449
I3
tp5450
a((I0
I1
I2
I3
I4
I5
I6
I7
tp5451
I3
tp5452
a((I0
I1
I2
I3
I4
I5
I6
I7
tp5453
I3
tp5454
a((I0
I1
I2
I3
I4
I5
I6
I7
tp5455
I3
tp5456
a((I0
I1
I2
I3
I4
I7
tp5457
I4
tp5458
a((I0
I1
I2
I3
I4
I5
I6
I7
tp5459
I3
tp5460
a((I0
I1
I2
I3
I4
I5
I6
I7
tp5461
I3
tp5462
a((I0
I1
I2
I3
I4
I5
I6
I7
tp5463
I3
tp5464
a((I0
I1
I2
I3
I4
I5
I6
I7
tp5465
I3
tp5466
a((I0
I1
I2
I3
I4
I7
tp5467
I3
tp5468
a((I0
I1
I2
I3
I4
I7
tp5469
I3
tp5470
a((I0
I1
I2
I3
I4
I5
I6
I7
tp5471
I3
tp5472
a((I0
I1
I2
I3
I4
I5
I7
tp5473
I3
tp5474
a((I0
I1
I2
I3
I4
I5
I6
I7
tp5475
I3
tp5476
a((I0
I1
I2
I3
I4
I5
I6
I7
tp5477
I3
tp5478
a((I0
I1
I2
I3
I4
I5
I6
I7
tp5479
I3
tp5480
a((I0
I1
I2
I3
I4
I7
tp5481
I3
tp5482
a((I0
I1
I2
I3
I4
I5
I7
tp5483
I3
tp5484
a((I0
I1
I2
I3
I4
I7
tp5485
I3
tp5486
a((I0
I1
I2
I3
I4
I5
I6
I7
tp5487
I3
tp5488
a((I0
I1
I2
I3
I4
I5
I6
I7
tp5489
I3
tp5490
a((I0
I1
I2
I3
I4
I7
tp5491
I3
tp5492
a((I0
I1
I2
I3
I4
I5
I6
I7
tp5493
I4
tp5494
a((I0
I1
I2
I3
I4
I5
I6
I7
tp5495
I4
tp5496
a((I0
I1
I2
I3
I4
I5
I6
I7
tp5497
I3
tp5498
a((I0
I1
I2
I3
I4
I7
tp5499
I3
tp5500
a((I0
I1
I2
I3
I4
I5
I6
I7
tp5501
I3
tp5502
a((I0
I1
I2
I3
I4
I7
tp5503
I3
tp5504
a((I0
I1
I2
I3
I4
I5
I6
I7
tp5505
I3
tp5506
a((I0
I1
I2
I3
I4
I5
I6
I7
tp5507
I3
tp5508
a((I0
I1
I2
I3
I4
I5
I6
I7
tp5509
I3
tp5510
a((I0
I1
I2
I3
I4
I7
tp5511
I3
tp5512
a((I0
I1
I2
I3
I4
I5
I6
I7
tp5513
I3
tp5514
a((I0
I1
I2
I3
I4
I5
I7
tp5515
I3
tp5516
a((I0
I1
I2
I3
I4
I5
I6
I7
tp5517
I3
tp5518
a((I0
I1
I2
I3
I4
I5
I6
I7
tp5519
I3
tp5520
a((I0
I1
I2
I3
I4
I5
I7
tp5521
I3
tp5522
a((I0
I1
I2
I3
I4
I7
tp5523
I3
tp5524
a((I0
I1
I2
I3
I4
I5
I6
I7
tp5525
I3
tp5526
a((I0
I1
I2
I3
I4
I5
I6
I7
tp5527
I3
tp5528
a((I0
I1
I2
I3
I4
I5
I6
I7
tp5529
I3
tp5530
a((I0
I1
I2
I3
I4
I5
I7
tp5531
I4
tp5532
a((I0
I1
I2
I3
I4
I7
tp5533
I3
tp5534
a((I0
I1
I2
I3
I4
I7
tp5535
I3
tp5536
a((I0
I1
I2
I3
I4
I5
I6
I7
tp5537
I4
tp5538
a((I0
I1
I2
I3
I4
I5
I6
I7
tp5539
I4
tp5540
a((I0
I1
I2
I3
I4
I5
I6
I7
tp5541
I3
tp5542
a((I0
I1
I2
I3
I4
I5
I6
I7
tp5543
I3
tp5544
a((I0
I1
I2
I3
I4
I5
I7
tp5545
I4
tp5546
a((I0
I1
I2
I3
I4
I5
I7
tp5547
I3
tp5548
a((I0
I1
I2
I3
I4
I5
I7
tp5549
I4
tp5550
a((I0
I1
I2
I3
I4
I5
I6
I7
tp5551
I3
tp5552
a((I0
I1
I2
I3
I4
I5
I6
I7
tp5553
I3
tp5554
a((I1
I2
I3
I4
I7
tp5555
I3
tp5556
a((I1
I2
I3
I4
I7
tp5557
I3
tp5558
a((I0
I1
I2
I3
I4
I5
I6
I7
tp5559
I3
tp5560
a((I0
I1
I2
I3
I4
I7
tp5561
I3
tp5562
a((I0
I1
I2
I3
I4
I5
I7
tp5563
I3
tp5564
a((I0
I1
I2
I3
I4
I7
tp5565
I4
tp5566
a((I0
I1
I2
I3
I4
I7
tp5567
I3
tp5568
a((I0
I1
I2
I3
I4
I5
I6
I7
tp5569
I3
tp5570
a((I0
I1
I2
I3
I4
I5
I6
I7
tp5571
I3
tp5572
a((I0
I1
I2
I3
I4
I5
I6
I7
tp5573
I3
tp5574
a((I0
I1
I2
I3
I4
I5
I6
I7
tp5575
I3
tp5576
a((I0
I1
I2
I3
I4
I7
tp5577
I4
tp5578
a((I0
I1
I2
I3
I4
I7
tp5579
I4
tp5580
a((I0
I1
I2
I3
I4
I5
I6
I7
tp5581
I3
tp5582
a((I0
I1
I2
I3
I4
I7
tp5583
I3
tp5584
a((I0
I1
I2
I3
I4
I5
I6
I7
tp5585
I3
tp5586
a((I0
I1
I2
I3
I4
I7
tp5587
I3
tp5588
a((I0
I1
I2
I3
I4
I5
I6
I7
tp5589
I3
tp5590
a((I0
I1
I2
I3
I4
I7
tp5591
I3
tp5592
a((I0
I1
I2
I3
I4
I5
I6
I7
tp5593
I3
tp5594
a((I1
I2
I3
I4
I7
tp5595
I2
tp5596
a((I0
I1
I2
I3
I4
I7
tp5597
I3
tp5598
a((I0
I1
I2
I3
I4
I5
I6
I7
tp5599
I3
tp5600
a((I0
I1
I2
I3
I4
I7
tp5601
I3
tp5602
a((I0
I1
I2
I3
I4
I5
I6
I7
tp5603
I3
tp5604
a((I0
I1
I2
I3
I4
I5
I6
I7
tp5605
I3
tp5606
a((I0
I1
I2
I3
I4
I5
I6
I7
tp5607
I3
tp5608
a((I0
I1
I2
I3
I4
I7
tp5609
I3
tp5610
a((I0
I1
I2
I3
I4
I7
tp5611
I4
tp5612
a((I0
I1
I2
I3
I4
I5
I6
I7
tp5613
I3
tp5614
a((I0
I1
I2
I3
I4
I5
I6
I7
tp5615
I3
tp5616
a((I0
I1
I2
I3
I4
I5
I6
I7
tp5617
I3
tp5618
a((I0
I1
I2
I3
I4
I5
I6
I7
tp5619
I3
tp5620
a((I0
I1
I2
I3
I4
I5
I6
I7
tp5621
I3
tp5622
a((I0
I1
I2
I3
I4
I5
I6
I7
tp5623
I3
tp5624
a((I0
I1
I2
I3
I4
I5
I6
I7
tp5625
I3
tp5626
a((I0
I1
I2
I3
I4
I5
I6
I7
tp5627
I3
tp5628
a((I0
I1
I2
I3
I4
I7
tp5629
I3
tp5630
a((I0
I1
I2
I3
I4
I5
I6
I7
tp5631
I3
tp5632
a((I0
I1
I2
I3
I4
I5
I6
I7
tp5633
I3
tp5634
a((I0
I1
I2
I3
I4
I7
tp5635
I3
tp5636
a((I0
I1
I2
I3
I4
I7
tp5637
I3
tp5638
a((I0
I1
I2
I3
I4
I7
tp5639
I4
tp5640
a((I0
I1
I2
I3
I4
I7
tp5641
I3
tp5642
a((I0
I1
I2
I3
I4
I5
I6
I7
tp5643
I3
tp5644
a((I0
I1
I2
I3
I4
I5
I6
I7
tp5645
I3
tp5646
a((I0
I1
I2
I3
I4
I7
tp5647
I3
tp5648
a((I0
I1
I2
I3
I4
I7
tp5649
I3
tp5650
a((I0
I1
I2
I3
I4
I5
I7
tp5651
I3
tp5652
a((I0
I1
I2
I3
I4
I5
I6
I7
tp5653
I3
tp5654
a((I0
I1
I2
I3
I4
I5
I6
I7
tp5655
I3
tp5656
a((I0
I1
I2
I3
I4
I7
tp5657
I3
tp5658
a((I0
I1
I2
I3
I4
I5
I6
I7
tp5659
I3
tp5660
a((I0
I1
I2
I3
I4
I5
I6
I7
tp5661
I3
tp5662
a((I0
I1
I2
I3
I4
I5
I7
tp5663
I3
tp5664
a((I0
I1
I2
I3
I4
I5
I6
I7
tp5665
I3
tp5666
a((I0
I1
I2
I3
I4
I7
tp5667
I3
tp5668
a((I0
I1
I2
I3
I4
I5
I6
I7
tp5669
I3
tp5670
a((I0
I1
I2
I3
I4
I5
I6
I7
tp5671
I3
tp5672
a((I0
I1
I2
I3
I4
I5
I6
I7
tp5673
I3
tp5674
a((I0
I1
I2
I3
I4
I5
I6
I7
tp5675
I3
tp5676
a((I0
I1
I2
I3
I4
I5
I7
tp5677
I3
tp5678
a((I0
I1
I2
I3
I4
I5
I6
I7
tp5679
I3
tp5680
a((I0
I1
I2
I3
I4
I5
I6
I7
tp5681
I3
tp5682
a((I0
I1
I2
I3
I4
I5
I6
I7
tp5683
I3
tp5684
a((I0
I1
I2
I3
I4
I5
I6
I7
tp5685
I3
tp5686
a((I0
I1
I2
I3
I4
I5
I6
I7
tp5687
I3
tp5688
a((I0
I1
I2
I3
I4
I7
tp5689
I3
tp5690
a((I0
I1
I2
I3
I4
I5
I6
I7
tp5691
I3
tp5692
a((I0
I1
I2
I3
I4
I5
I6
I7
tp5693
I3
tp5694
a((I0
I1
I2
I3
I4
I5
I6
I7
tp5695
I3
tp5696
a((I0
I1
I2
I3
I4
I5
I6
I7
tp5697
I3
tp5698
a((I0
I1
I2
I3
I4
I5
I6
I7
tp5699
I3
tp5700
a((I0
I1
I2
I3
I4
I5
I6
I7
tp5701
I3
tp5702
a((I0
I1
I2
I3
I4
I5
I6
I7
tp5703
I3
tp5704
a((I0
I1
I2
I3
I4
I5
I6
I7
tp5705
I3
tp5706
a((I0
I1
I2
I3
I4
I5
I6
I7
tp5707
I3
tp5708
a((I0
I1
I2
I3
I4
I5
I6
I7
tp5709
I3
tp5710
a((I0
I1
I2
I3
I4
I5
I6
I7
tp5711
I3
tp5712
a((I0
I1
I2
I3
I4
I5
I6
I7
tp5713
I4
tp5714
a((I0
I1
I2
I3
I4
I5
I6
I7
tp5715
I3
tp5716
a((I0
I1
I2
I3
I4
I5
I7
tp5717
I3
tp5718
a((I0
I1
I2
I3
I4
I5
I6
I7
tp5719
I3
tp5720
a((I0
I1
I2
I3
I4
I5
I6
I7
tp5721
I3
tp5722
a((I0
I1
I2
I3
I4
I5
I6
I7
tp5723
I3
tp5724
a((I0
I1
I2
I3
I4
I5
I6
I7
tp5725
I3
tp5726
a((I0
I1
I2
I3
I4
I5
I7
tp5727
I3
tp5728
a((I0
I1
I2
I3
I4
I5
I6
I7
tp5729
I3
tp5730
a((I0
I1
I2
I3
I4
I5
I6
I7
tp5731
I3
tp5732
a((I0
I1
I2
I3
I4
I5
I7
tp5733
I3
tp5734
a((I0
I1
I2
I3
I4
I7
tp5735
I3
tp5736
a((I0
I1
I2
I3
I4
I5
I7
tp5737
I3
tp5738
a((I0
I1
I2
I3
I4
I5
I6
I7
tp5739
I3
tp5740
a((I0
I1
I2
I3
I4
I5
I6
I7
tp5741
I3
tp5742
a((I0
I1
I2
I3
I4
I7
tp5743
I3
tp5744
a((I0
I1
I2
I3
I4
I5
I6
I7
tp5745
I3
tp5746
a((I0
I1
I2
I3
I4
I5
I6
I7
tp5747
I3
tp5748
a((I0
I1
I2
I3
I4
I5
I7
tp5749
I4
tp5750
a((I0
I1
I2
I3
I4
I5
I6
I7
tp5751
I3
tp5752
a((I0
I1
I2
I3
I4
I5
I6
I7
tp5753
I3
tp5754
a((I0
I1
I2
I3
I4
I5
I6
I7
tp5755
I4
tp5756
a((I0
I1
I2
I3
I4
I5
I6
I7
tp5757
I3
tp5758
a((I0
I1
I2
I3
I4
I5
I7
tp5759
I4
tp5760
a((I0
I1
I2
I3
I4
I5
I7
tp5761
I4
tp5762
a((I0
I1
I2
I3
I4
I7
tp5763
I4
tp5764
a((I0
I1
I2
I3
I4
I7
tp5765
I4
tp5766
a((I0
I1
I2
I3
I4
I7
tp5767
I4
tp5768
a((I0
I1
I2
I3
I4
I7
tp5769
I4
tp5770
a((I0
I1
I2
I3
I4
I5
I7
tp5771
I3
tp5772
a((I0
I1
I2
I3
I4
I7
tp5773
I3
tp5774
a((I0
I1
I2
I3
I4
I5
I6
I7
tp5775
I3
tp5776
a((I0
I1
I2
I3
I4
I7
tp5777
I3
tp5778
a((I0
I1
I2
I3
I4
I5
I7
tp5779
I3
tp5780
a((I1
I2
I3
I4
I7
tp5781
I2
tp5782
a((I0
I1
I2
I3
I4
I5
I6
I7
tp5783
I3
tp5784
a((I0
I1
I2
I3
I4
I5
I6
I7
tp5785
I3
tp5786
a((I0
I1
I2
I3
I4
I5
I6
I7
tp5787
I3
tp5788
a((I0
I1
I2
I3
I4
I5
I6
I7
tp5789
I4
tp5790
a((I0
I1
I2
I3
I4
I5
I6
I7
tp5791
I4
tp5792
a((I0
I1
I2
I3
I4
I5
I6
I7
tp5793
I3
tp5794
a((I1
I2
I3
I4
I5
I6
I7
tp5795
I2
tp5796
a((I0
I1
I2
I3
I4
I5
I6
I7
tp5797
I3
tp5798
a((I0
I1
I2
I3
I4
I5
I6
I7
tp5799
I3
tp5800
a((I0
I1
I2
I3
I4
I5
I6
I7
tp5801
I3
tp5802
a((I0
I1
I2
I3
I4
I5
I6
I7
tp5803
I3
tp5804
a((I0
I1
I2
I3
I4
I5
I6
I7
tp5805
I4
tp5806
a((I0
I1
I2
I3
I4
I7
tp5807
I3
tp5808
a((I0
I1
I2
I3
I4
I5
I6
I7
tp5809
I3
tp5810
a((I0
I1
I2
I3
I4
I7
tp5811
I3
tp5812
a((I0
I1
I2
I3
I4
I7
tp5813
I3
tp5814
a((I0
I1
I2
I3
I4
I7
tp5815
I3
tp5816
a((I0
I1
I2
I3
I4
I5
I6
I7
tp5817
I3
tp5818
a((I0
I1
I2
I3
I4
I5
I7
tp5819
I3
tp5820
a((I0
I1
I2
I3
I4
I5
I6
I7
tp5821
I4
tp5822
a((I0
I1
I2
I3
I4
I5
I6
I7
tp5823
I3
tp5824
a((I0
I1
I2
I3
I4
I5
I6
I7
tp5825
I3
tp5826
a((I0
I1
I2
I3
I4
I5
I6
I7
tp5827
I3
tp5828
a((I0
I1
I2
I3
I4
I5
I6
I7
tp5829
I3
tp5830
a((I0
I1
I2
I3
I4
I5
I6
I7
tp5831
I3
tp5832
a((I0
I1
I2
I3
I4
I7
tp5833
I3
tp5834
a((I0
I1
I2
I3
I4
I5
I6
I7
tp5835
I3
tp5836
a((I0
I1
I2
I3
I4
I5
I6
I7
tp5837
I3
tp5838
a((I0
I1
I2
I3
I4
I7
tp5839
I3
tp5840
a((I0
I1
I2
I3
I4
I5
I6
I7
tp5841
I3
tp5842
a((I0
I1
I2
I3
I4
I5
I6
I7
tp5843
I3
tp5844
a((I0
I1
I2
I3
I4
I5
I6
I7
tp5845
I4
tp5846
a((I0
I1
I2
I3
I4
I5
I6
I7
tp5847
I3
tp5848
a((I0
I1
I2
I3
I4
I7
tp5849
I3
tp5850
a((I0
I1
I2
I3
I4
I5
I6
I7
tp5851
I3
tp5852
a((I0
I1
I2
I3
I4
I5
I6
tp5853
I4
tp5854
a((I1
I2
I3
I4
I7
tp5855
I2
tp5856
a((I1
I2
I3
I4
I7
tp5857
I2
tp5858
a((I0
I1
I2
I3
I4
I5
I6
I7
tp5859
I3
tp5860
a((I0
I1
I2
I3
I4
I7
tp5861
I3
tp5862
a((I0
I1
I2
I3
I4
I7
tp5863
I3
tp5864
a((I0
I1
I2
I3
I4
I5
I6
I7
tp5865
I4
tp5866
a((I0
I1
I2
I3
I4
I5
I6
I7
tp5867
I4
tp5868
a((I0
I1
I2
I3
I4
I5
I6
I7
tp5869
I4
tp5870
a((I0
I1
I2
I3
I4
I5
I6
I7
tp5871
I4
tp5872
a((I0
I1
I2
I3
I4
I5
I6
I7
tp5873
I3
tp5874
a((I0
I1
I2
I3
I4
I5
I6
I7
tp5875
I3
tp5876
a((I0
I1
I2
I3
I4
I5
I6
I7
tp5877
I3
tp5878
a((I0
I1
I2
I3
I4
I5
I6
I7
tp5879
I3
tp5880
a((I0
I1
I2
I3
I4
I5
I6
I7
tp5881
I3
tp5882
a((I0
I1
I2
I3
I4
I5
I6
I7
tp5883
I3
tp5884
a((I0
I1
I2
I3
I4
I5
I6
I7
tp5885
I3
tp5886
a((I0
I1
I2
I3
I4
I5
I6
I7
tp5887
I3
tp5888
a((I0
I1
I2
I3
I4
I5
I6
I7
tp5889
I3
tp5890
a((I0
I1
I2
I3
I4
I5
I6
I7
tp5891
I3
tp5892
a((I0
I1
I2
I3
I4
I7
tp5893
I4
tp5894
a((I0
I1
I2
I3
I4
I7
tp5895
I3
tp5896
a((I0
I1
I2
I3
I4
I5
I6
I7
tp5897
I3
tp5898
a((I0
I1
I2
I3
I4
I5
I6
I7
tp5899
I3
tp5900
a((I0
I1
I2
I3
I4
I5
I6
I7
tp5901
I3
tp5902
a((I0
I1
I2
I3
I4
I5
I6
I7
tp5903
I3
tp5904
a((I0
I1
I2
I3
I4
I5
I6
I7
tp5905
I3
tp5906
a((I0
I1
I2
I3
I4
I7
tp5907
I3
tp5908
a((I0
I1
I2
I3
I4
I5
I6
I7
tp5909
I4
tp5910
a((I0
I1
I2
I3
I4
I7
tp5911
I4
tp5912
a((I0
I1
I2
I3
I4
I7
tp5913
I4
tp5914
a((I0
I1
I2
I3
I4
I7
tp5915
I3
tp5916
a((I0
I1
I2
I3
I4
I5
I6
I7
tp5917
I3
tp5918
a((I0
I1
I2
I3
I4
I5
I6
I7
tp5919
I3
tp5920
a((I0
I1
I2
I3
I4
I7
tp5921
I3
tp5922
a((I0
I1
I2
I3
I4
I5
I6
I7
tp5923
I3
tp5924
a((I0
I1
I2
I3
I4
I5
I6
I7
tp5925
I3
tp5926
a((I0
I1
I2
I3
I4
I5
I6
I7
tp5927
I3
tp5928
a((I0
I1
I2
I3
I4
I5
I6
I7
tp5929
I3
tp5930
a((I0
I1
I2
I3
I4
I5
I6
I7
tp5931
I3
tp5932
a((I0
I1
I2
I3
I4
I5
I6
I7
tp5933
I4
tp5934
a((I0
I1
I2
I3
I4
I5
I6
I7
tp5935
I3
tp5936
a((I0
I1
I2
I3
I4
I7
tp5937
I4
tp5938
a((I0
I1
I2
I3
I4
I5
I6
I7
tp5939
I4
tp5940
a((I0
I1
I2
I3
I4
I5
I6
I7
tp5941
I4
tp5942
a((I0
I1
I2
I3
I4
I5
I6
I7
tp5943
I3
tp5944
a((I0
I1
I2
I3
I4
I5
I6
I7
tp5945
I3
tp5946
a((I0
I1
I2
I3
I4
I7
tp5947
I3
tp5948
a((I0
I1
I2
I3
I4
I5
I6
I7
tp5949
I3
tp5950
a((I0
I1
I2
I3
I4
I5
I6
I7
tp5951
I3
tp5952
a((I0
I1
I2
I3
I4
I7
tp5953
I3
tp5954
a((I0
I1
I2
I3
I4
I5
I7
tp5955
I3
tp5956
a((I0
I1
I2
I3
I4
I5
I6
I7
tp5957
I3
tp5958
a((I0
I1
I2
I3
I4
I5
I6
I7
tp5959
I3
tp5960
a((I0
I1
I2
I3
I4
I5
I7
tp5961
I3
tp5962
a((I0
I1
I2
I3
I4
I5
I6
I7
tp5963
I3
tp5964
a((I0
I1
I2
I3
I4
I5
I6
I7
tp5965
I3
tp5966
a((I0
I1
I2
I3
I4
I5
I6
I7
tp5967
I3
tp5968
a((I0
I1
I2
I3
I4
I5
I6
I7
tp5969
I3
tp5970
a((I0
I1
I2
I3
I4
I5
I6
I7
tp5971
I3
tp5972
a((I0
I1
I2
I3
I4
I5
I6
I7
tp5973
I3
tp5974
a((I0
I1
I2
I3
I4
I5
I6
I7
tp5975
I3
tp5976
a((I0
I1
I2
I3
I4
I5
I6
I7
tp5977
I4
tp5978
a((I0
I1
I2
I3
I4
I7
tp5979
I3
tp5980
a((I0
I1
I2
I3
I4
I5
I6
I7
tp5981
I3
tp5982
a((I0
I1
I2
I3
I4
I5
I6
I7
tp5983
I3
tp5984
a((I0
I1
I2
I3
I4
I5
I6
I7
tp5985
I3
tp5986
a((I0
I1
I2
I3
I4
I5
I6
I7
tp5987
I3
tp5988
a((I0
I1
I2
I3
I4
I7
tp5989
I3
tp5990
a((I0
I1
I2
I3
I4
I7
tp5991
I3
tp5992
a((I0
I1
I2
I3
I4
I5
I6
I7
tp5993
I4
tp5994
a((I0
I1
I2
I3
I4
I5
I6
I7
tp5995
I4
tp5996
a((I0
I1
I2
I3
I4
I5
I6
I7
tp5997
I3
tp5998
a((I0
I1
I2
I3
I4
I7
tp5999
I3
tp6000
a((I0
I1
I2
I3
I4
I5
I6
I7
tp6001
I3
tp6002
a((I0
I1
I2
I3
I4
I5
I6
I7
tp6003
I3
tp6004
a((I0
I1
I2
I3
I4
I5
I6
I7
tp6005
I3
tp6006
a((I0
I1
I2
I3
I4
I5
I6
I7
tp6007
I4
tp6008
a((I0
I1
I2
I3
I4
I7
tp6009
I3
tp6010
a((I0
I1
I2
I3
I4
I5
I6
I7
tp6011
I3
tp6012
a((I0
I1
I2
I3
I4
I5
I6
I7
tp6013
I3
tp6014
a((I0
I1
I2
I3
I4
I7
tp6015
I3
tp6016
a((I0
I1
I2
I3
I4
I5
I6
I7
tp6017
I3
tp6018
a((I0
I1
I2
I3
I4
I7
tp6019
I3
tp6020
a((I0
I1
I2
I3
I4
I5
I6
I7
tp6021
I3
tp6022
a((I0
I1
I2
I3
I4
I5
I6
I7
tp6023
I3
tp6024
a((I0
I1
I2
I3
I4
I5
I6
I7
tp6025
I3
tp6026
a((I0
I1
I2
I3
I4
I5
I7
tp6027
I3
tp6028
a((I0
I1
I2
I3
I4
I5
I7
tp6029
I3
tp6030
a((I0
I1
I2
I3
I4
I5
I6
I7
tp6031
I3
tp6032
a((I0
I1
I2
I3
I4
I7
tp6033
I4
tp6034
a((I0
I1
I2
I3
I4
I7
tp6035
I4
tp6036
a((I0
I1
I2
I3
I4
I5
I6
I7
tp6037
I3
tp6038
a((I0
I1
I2
I3
I4
I5
I6
I7
tp6039
I3
tp6040
a((I0
I1
I2
I3
I4
I7
tp6041
I3
tp6042
a((I0
I1
I2
I3
I4
I5
I6
I7
tp6043
I3
tp6044
a((I0
I1
I2
I3
I4
I5
I7
tp6045
I3
tp6046
a((I0
I1
I2
I3
I4
I5
I6
I7
tp6047
I3
tp6048
a((I0
I1
I2
I3
I4
I5
I6
I7
tp6049
I3
tp6050
a((I0
I1
I2
I3
I4
I5
I6
I7
tp6051
I3
tp6052
a((I0
I1
I2
I3
I4
I5
I6
I7
tp6053
I3
tp6054
a((I0
I1
I2
I3
I4
I5
I6
I7
tp6055
I3
tp6056
a((I0
I1
I2
I3
I4
I5
I7
tp6057
I3
tp6058
a((I0
I1
I2
I3
I4
I7
tp6059
I3
tp6060
a((I0
I1
I2
I3
I4
I7
tp6061
I3
tp6062
a((I0
I1
I2
I3
I4
I7
tp6063
I3
tp6064
a((I0
I1
I2
I3
I4
I5
I6
I7
tp6065
I4
tp6066
a((I0
I1
I2
I3
I4
I5
I6
I7
tp6067
I3
tp6068
a((I0
I1
I2
I3
I4
I5
I6
I7
tp6069
I3
tp6070
a((I0
I1
I2
I3
I4
I7
tp6071
I3
tp6072
a((I1
I2
I3
I4
I5
I6
I7
tp6073
I2
tp6074
a((I1
I2
I3
I4
I5
I6
I7
tp6075
I2
tp6076
a((I0
I1
I2
I3
I4
I5
I6
I7
tp6077
I3
tp6078
a((I0
I1
I2
I3
I4
I7
tp6079
I4
tp6080
a((I0
I1
I2
I3
I4
I7
tp6081
I3
tp6082
a((I0
I1
I2
I3
I4
I7
tp6083
I3
tp6084
a((I0
I1
I2
I3
I4
I5
I6
I7
tp6085
I3
tp6086
a((I0
I1
I2
I3
I4
I5
I6
I7
tp6087
I3
tp6088
a((I0
I1
I2
I3
I4
I5
I6
I7
tp6089
I3
tp6090
a((I0
I1
I2
I3
I4
I5
I6
I7
tp6091
I3
tp6092
a((I0
I1
I2
I3
I4
I5
I6
I7
tp6093
I3
tp6094
a((I0
I1
I2
I3
I4
I5
I6
I7
tp6095
I4
tp6096
a((I0
I1
I2
I3
I4
I7
tp6097
I3
tp6098
a((I0
I1
I2
I3
I4
I5
I7
tp6099
I4
tp6100
a((I0
I1
I2
I3
I4
I5
I6
I7
tp6101
I3
tp6102
a((I0
I1
I2
I3
I4
I7
tp6103
I3
tp6104
a((I1
I2
I3
I4
I7
tp6105
I2
tp6106
a((I0
I1
I2
I3
I4
I5
I6
I7
tp6107
I3
tp6108
a((I0
I1
I2
I3
I4
I5
I6
I7
tp6109
I3
tp6110
a((I0
I1
I2
I3
I4
I5
I6
I7
tp6111
I3
tp6112
a((I1
I2
I3
I4
I7
tp6113
I2
tp6114
a((I0
I1
I2
I3
I4
I5
I6
I7
tp6115
I3
tp6116
a((I1
I2
I3
I4
I5
I6
I7
tp6117
I3
tp6118
a((I1
I2
I3
I4
I5
I7
tp6119
I2
tp6120
a((I0
I1
I2
I3
I4
I5
I6
I7
tp6121
I3
tp6122
a((I0
I1
I2
I3
I4
I5
I6
I7
tp6123
I3
tp6124
a((I0
I1
I2
I3
I4
I5
I6
I7
tp6125
I3
tp6126
a((I0
I1
I2
I3
I4
I5
I6
I7
tp6127
I3
tp6128
a((I0
I1
I2
I3
I4
I5
I7
tp6129
I4
tp6130
a((I0
I1
I2
I3
I4
I5
I7
tp6131
I4
tp6132
a((I1
I2
I3
I4
I7
tp6133
I3
tp6134
a((I1
I2
I3
I4
I5
I6
I7
tp6135
I2
tp6136
a((I0
I1
I2
I3
I4
I5
I6
I7
tp6137
I4
tp6138
a((I0
I1
I2
I3
I4
I5
I6
I7
tp6139
I3
tp6140
a((I0
I1
I2
I3
I4
I5
I6
I7
tp6141
I3
tp6142
a((I0
I1
I2
I3
I4
I5
I6
I7
tp6143
I3
tp6144
a((I0
I1
I2
I3
I4
I5
I6
I7
tp6145
I3
tp6146
a((I0
I1
I2
I3
I4
I5
I7
tp6147
I3
tp6148
a((I0
I1
I2
I3
I4
I5
I6
I7
tp6149
I4
tp6150
a((I0
I1
I2
I3
I4
I5
I6
I7
tp6151
I4
tp6152
a((I0
I1
I2
I3
I4
I5
I6
I7
tp6153
I4
tp6154
a((I0
I1
I2
I3
I4
I5
I6
I7
tp6155
I4
tp6156
a((I1
I2
I3
I4
I7
tp6157
I2
tp6158
a((I1
I2
I3
I4
I5
I7
tp6159
I2
tp6160
a((I0
I1
I2
I3
I4
I7
tp6161
I3
tp6162
a((I0
I1
I2
I3
I4
I7
tp6163
I3
tp6164
a((I1
I2
I3
I4
I7
tp6165
I2
tp6166
a((I0
I1
I2
I3
I4
I7
tp6167
I3
tp6168
a((I0
I1
I2
I3
I4
I7
tp6169
I3
tp6170
a((I0
I1
I2
I3
I4
I5
I6
I7
tp6171
I3
tp6172
a((I1
I2
I3
I4
I5
I6
I7
tp6173
I2
tp6174
a((I1
I2
I3
I4
I7
tp6175
I3
tp6176
a((I0
I1
I2
I3
I4
I5
I6
I7
tp6177
I4
tp6178
a((I0
I1
I2
I3
I4
I5
I6
I7
tp6179
I3
tp6180
a((I0
I1
I2
I3
I4
I7
tp6181
I4
tp6182
a((I0
I1
I2
I3
I4
I5
I6
I7
tp6183
I3
tp6184
a((I0
I1
I2
I3
I4
I5
I6
I7
tp6185
I3
tp6186
a((I0
I1
I2
I3
I4
I5
I6
I7
tp6187
I3
tp6188
a((I0
I1
I2
I3
I4
I5
I6
I7
tp6189
I3
tp6190
a((I0
I1
I2
I3
I4
I5
I6
I7
tp6191
I3
tp6192
a((I0
I1
I2
I3
I4
I5
I6
I7
tp6193
I3
tp6194
a((I0
I1
I2
I3
I4
I5
I6
I7
tp6195
I4
tp6196
a((I0
I1
I2
I3
I4
I5
I6
I7
tp6197
I4
tp6198
a((I0
I1
I2
I3
I4
I7
tp6199
I3
tp6200
a((I1
I2
I3
I4
I7
tp6201
I2
tp6202
a((I0
I1
I2
I3
I4
I5
I6
I7
tp6203
I4
tp6204
a((I0
I1
I2
I3
I4
I5
I6
I7
tp6205
I4
tp6206
a((I0
I1
I2
I3
I4
I5
I6
I7
tp6207
I4
tp6208
a((I0
I1
I2
I3
I4
I5
I7
tp6209
I3
tp6210
a((I0
I1
I2
I3
I4
I5
I6
I7
tp6211
I3
tp6212
a((I0
I1
I2
I3
I4
I5
I6
I7
tp6213
I3
tp6214
a((I0
I1
I2
I3
I4
I5
I6
I7
tp6215
I3
tp6216
a((I0
I1
I2
I3
I4
I5
I7
tp6217
I3
tp6218
a((I0
I1
I2
I3
I4
I5
I6
I7
tp6219
I3
tp6220
a((I0
I1
I2
I3
I4
I5
I6
I7
tp6221
I3
tp6222
a((I0
I1
I2
I3
I4
I5
I6
I7
tp6223
I3
tp6224
a((I0
I1
I2
I3
I4
I5
I6
I7
tp6225
I3
tp6226
a((I0
I1
I2
I3
I4
I5
I6
I7
tp6227
I3
tp6228
a((I0
I1
I2
I3
I4
I5
I7
tp6229
I3
tp6230
a((I0
I1
I2
I3
I4
I5
I6
I7
tp6231
I3
tp6232
a((I0
I1
I2
I3
I4
I5
I6
I7
tp6233
I3
tp6234
a((I0
I1
I2
I3
I4
I5
I6
I7
tp6235
I3
tp6236
a((I0
I1
I2
I3
I4
I5
I6
I7
tp6237
I3
tp6238
a((I0
I1
I2
I3
I4
I5
I6
I7
tp6239
I4
tp6240
a((I0
I1
I2
I3
I4
I5
I6
I7
tp6241
I3
tp6242
a((I0
I1
I2
I3
I4
I7
tp6243
I3
tp6244
a((I0
I1
I2
I3
I4
I5
I6
I7
tp6245
I3
tp6246
a((I0
I1
I2
I3
I4
I7
tp6247
I3
tp6248
a((I0
I1
I2
I3
I4
I5
I6
I7
tp6249
I3
tp6250
a((I0
I1
I2
I3
I4
I5
I6
I7
tp6251
I4
tp6252
a((I0
I1
I2
I3
I4
I5
I6
I7
tp6253
I4
tp6254
a((I0
I1
I2
I3
I4
I5
I6
I7
tp6255
I3
tp6256
a((I0
I1
I2
I3
I4
I5
I7
tp6257
I3
tp6258
a((I0
I1
I2
I3
I4
I5
I6
I7
tp6259
I3
tp6260
a((I0
I1
I2
I3
I4
I5
I6
I7
tp6261
I3
tp6262
a((I0
I1
I2
I3
I4
I5
I7
tp6263
I3
tp6264
a((I0
I1
I2
I3
I4
I5
I7
tp6265
I3
tp6266
a((I0
I1
I2
I3
I4
I5
I6
I7
tp6267
I3
tp6268
a((I0
I1
I2
I3
I4
I5
I7
tp6269
I3
tp6270
a((I1
I2
I3
I4
I5
I7
tp6271
I2
tp6272
a((I0
I1
I2
I3
I4
I5
I6
I7
tp6273
I3
tp6274
a((I0
I1
I2
I3
I4
I5
I6
I7
tp6275
I3
tp6276
a((I0
I1
I2
I3
I4
I5
I6
I7
tp6277
I3
tp6278
a((I0
I1
I2
I3
I4
I5
I6
I7
tp6279
I3
tp6280
a((I0
I1
I2
I3
I4
I5
I6
I7
tp6281
I3
tp6282
a((I1
I2
I3
I4
I7
tp6283
I3
tp6284
a((I0
I1
I2
I3
I4
I5
I6
I7
tp6285
I3
tp6286
a((I0
I1
I2
I3
I4
I7
tp6287
I4
tp6288
a((I0
I1
I2
I3
I4
I7
tp6289
I3
tp6290
a((I0
I1
I2
I3
I4
I7
tp6291
I3
tp6292
a((I0
I1
I2
I3
I4
I7
tp6293
I3
tp6294
a((I1
I2
I3
I4
I7
tp6295
I2
tp6296
a((I0
I1
I2
I3
I4
I7
tp6297
I3
tp6298
a((I1
I2
I3
I4
I7
tp6299
I2
tp6300
a((I1
I2
I3
I4
I7
tp6301
I2
tp6302
a((I1
I2
I3
I4
I7
tp6303
I2
tp6304
a((I1
I2
I3
I4
I7
tp6305
I3
tp6306
a((I1
I2
I3
I4
I7
tp6307
I3
tp6308
a((I0
I1
I2
I3
I4
I7
tp6309
I3
tp6310
a((I0
I1
I2
I3
I4
I5
I7
tp6311
I3
tp6312
a((I0
I1
I2
I3
I4
I5
I7
tp6313
I3
tp6314
a.