(lp0
((I0
I1
I2
I3
I4
tp1
I0
tp2
a((I0
I1
I2
I3
I4
tp3
I3
tp4
a((I0
I1
I2
I3
tp5
I0
tp6
a((I0
I1
I2
I3
tp7
I3
tp8
a((I1
I2
I3
I4
tp9
I0
tp10
a((I1
I2
I3
I4
I5
tp11
I2
tp12
a((I0
I1
I2
I3
I4
I5
tp13
I0
tp14
a((I0
I1
I2
I3
I4
tp15
I0
tp16
a((I0
I1
I2
I3
tp17
I0
tp18
a((I0
I1
I2
I3
tp19
I0
tp20
a((I0
I1
I2
I3
I4
tp21
I3
tp22
a((I0
I1
I2
I3
tp23
I0
tp24
a((I0
I1
I2
I3
tp25
I0
tp26
a((I0
I1
I2
I3
tp27
I0
tp28
a((I0
I1
I2
I3
I4
tp29
I0
tp30
a((I0
I1
I2
tp31
I0
tp32
a((I0
I1
I2
I3
tp33
I3
tp34
a((I0
I1
I2
I3
I4
I5
tp35
I1
tp36
a((I0
I1
I2
I3
tp37
I0
tp38
a((I0
I1
I2
I3
tp39
I0
tp40
a((I0
I1
I2
I3
tp41
I0
tp42
a((I0
I1
I2
tp43
I2
tp44
a((I0
I1
I2
I3
I4
tp45
I0
tp46
a((I0
I1
I2
I3
tp47
I0
tp48
a((I0
I1
I2
I3
I5
tp49
I0
tp50
a((I0
I1
I2
I3
I4
I5
tp51
I0
tp52
a((I0
I1
I2
I3
tp53
I0
tp54
a((I0
I1
I2
I3
tp55
I1
tp56
a((I0
I1
I2
I3
tp57
I0
tp58
a((I0
I1
I2
I3
I5
tp59
I0
tp60
a((I0
I1
I2
I3
tp61
I0
tp62
a((I0
I1
I2
I3
I4
tp63
I0
tp64
a((I0
I1
I2
tp65
I0
tp66
a((I0
I1
I2
I3
I4
I5
tp67
I0
tp68
a((I0
I1
I2
I3
I4
I5
tp69
I0
tp70
a((I0
I1
I2
I3
I4
I5
tp71
I0
tp72
a((I0
I1
I2
I3
tp73
I0
tp74
a((I0
I1
I2
I3
I5
tp75
I0
tp76
a((I0
I1
I2
I3
I4
I5
tp77
I0
tp78
a((I0
I1
I2
I3
tp79
I0
tp80
a((I0
I1
I2
I3
I5
tp81
I0
tp82
a((I0
I1
I2
I3
tp83
I3
tp84
a((I0
I1
I2
I3
I5
tp85
I0
tp86
a((I0
I1
I2
I3
tp87
I0
tp88
a((I0
I1
I2
I3
tp89
I0
tp90
a((I0
I1
I2
I3
I5
tp91
I0
tp92
a((I0
I1
I2
I3
I4
tp93
I0
tp94
a((I0
I1
I2
I3
I5
tp95
I0
tp96
a((I0
I1
I2
I3
I4
tp97
I0
tp98
a((I0
I1
I2
I3
I4
tp99
I0
tp100
a((I0
I1
I2
I3
tp101
I3
tp102
a((I0
I1
I2
I3
tp103
I2
tp104
a((I0
I1
I2
I3
tp105
I3
tp106
a((I0
I1
I2
I3
tp107
I0
tp108
a((I0
I1
I2
I3
tp109
I0
tp110
a((I0
I1
I2
tp111
I0
tp112
a((I0
I1
I2
I3
tp113
I3
tp114
a((I0
I1
I2
tp115
I0
tp116
a((I0
I1
I2
I3
I4
I5
tp117
I0
tp118
a((I0
I1
I2
I3
I4
tp119
I0
tp120
a((I0
I1
I2
I3
I4
I5
tp121
I0
tp122
a((I0
I1
I2
I3
I4
tp123
I0
tp124
a((I0
I1
I2
I3
I5
tp125
I0
tp126
a((I0
I1
I2
I3
I5
tp127
I0
tp128
a((I0
I1
I2
I3
tp129
I0
tp130
a((I0
I1
I2
I3
tp131
I0
tp132
a((I0
I1
I2
I3
tp133
I3
tp134
a((I0
I1
I2
I3
I4
I5
tp135
I0
tp136
a((I0
I1
I2
I3
tp137
I3
tp138
a((I0
I1
I2
I3
I4
tp139
I0
tp140
a((I0
I1
I2
I3
tp141
I0
tp142
a((I0
I1
I2
I3
tp143
I0
tp144
a((I0
I1
I2
I3
tp145
I0
tp146
a((I0
I1
I2
I3
tp147
I3
tp148
a((I0
I1
I2
I3
I4
I5
tp149
I0
tp150
a((I0
I1
I2
I3
I4
I5
tp151
I0
tp152
a((I0
I1
I2
I3
I5
tp153
I0
tp154
a((I0
I1
I2
I3
I5
tp155
I0
tp156
a((I0
I1
I2
I3
I5
tp157
I0
tp158
a((I0
I1
I2
I3
I4
tp159
I0
tp160
a((I0
I1
I2
I3
tp161
I0
tp162
a((I0
I1
I2
tp163
I1
tp164
a((I0
I1
I2
I3
tp165
I3
tp166
a((I0
I1
I2
tp167
I1
tp168
a((I0
I1
I2
I3
I4
I5
tp169
I0
tp170
a((I0
I1
I2
I3
I4
tp171
I0
tp172
a((I0
I1
I2
I3
I5
tp173
I0
tp174
a((I0
I1
I2
I3
I4
tp175
I0
tp176
a((I0
I1
I2
I3
I5
tp177
I4
tp178
a((I0
I1
I2
tp179
I0
tp180
a((I0
I1
I2
I3
I4
tp181
I0
tp182
a((I0
I1
I2
I3
tp183
I0
tp184
a((I0
I1
I2
I3
tp185
I0
tp186
a((I0
I1
I2
I3
I4
tp187
I0
tp188
a((I0
I1
I2
I3
I4
I5
tp189
I0
tp190
a((I0
I1
I2
I3
I4
I5
tp191
I0
tp192
a((I0
I1
I2
tp193
I2
tp194
a((I0
I1
I2
I3
tp195
I0
tp196
a((I0
I1
I2
tp197
I0
tp198
a((I0
I1
I2
I3
tp199
I0
tp200
a((I0
I1
I2
tp201
I0
tp202
a((I0
I1
I2
I3
I4
tp203
I0
tp204
a((I0
I1
I2
I3
I4
tp205
I0
tp206
a((I0
I1
I2
tp207
I0
tp208
a((I0
I1
I2
I3
tp209
I3
tp210
a((I0
I1
I2
I3
I4
tp211
I0
tp212
a((I0
I1
I2
I3
I4
tp213
I0
tp214
a((I0
I1
I2
tp215
I0
tp216
a((I0
I1
I2
I3
tp217
I1
tp218
a((I0
I1
I2
I3
I4
I5
tp219
I1
tp220
a((I0
I1
I2
I3
tp221
I0
tp222
a((I0
I1
I2
I3
I5
tp223
I0
tp224
a((I0
I1
I2
tp225
I0
tp226
a((I0
I1
I2
tp227
I0
tp228
a((I0
I1
I2
I3
tp229
I0
tp230
a((I0
I1
I2
I3
tp231
I0
tp232
a((I0
I1
I2
I3
I5
tp233
I3
tp234
a((I0
I1
I2
I3
tp235
I1
tp236
a((I0
I1
I2
I3
I5
tp237
I0
tp238
a((I0
I1
I2
I3
tp239
I0
tp240
a((I0
I1
I2
I3
tp241
I0
tp242
a((I1
I2
I3
I5
tp243
I3
tp244
a((I0
I1
I2
I3
I4
tp245
I1
tp246
a((I0
I1
I2
I3
I4
I5
tp247
I0
tp248
a((I0
I1
I2
I3
I4
tp249
I1
tp250
a((I0
I1
I2
I3
I4
tp251
I1
tp252
a((I0
I1
I2
I3
tp253
I0
tp254
a((I0
I1
I2
I3
tp255
I0
tp256
a((I0
I1
I2
I3
tp257
I0
tp258
a((I0
I1
I2
tp259
I0
tp260
a((I0
I1
I2
I3
I4
tp261
I1
tp262
a((I0
I1
I2
I3
I4
tp263
I4
tp264
a((I0
I1
I2
I3
I4
tp265
I0
tp266
a((I0
I1
I2
I3
tp267
I0
tp268
a((I0
I1
I2
I3
I5
tp269
I0
tp270
a((I0
I1
I2
tp271
I1
tp272
a((I0
I1
I2
tp273
I1
tp274
a((I0
I1
I2
I3
tp275
I0
tp276
a((I0
I1
I2
I3
I4
tp277
I0
tp278
a((I0
I1
I2
tp279
I0
tp280
a((I0
I1
I2
I3
I4
I5
tp281
I0
tp282
a((I0
I1
I2
tp283
I0
tp284
a((I0
I1
I2
I3
I4
I5
tp285
I0
tp286
a((I0
I1
I2
tp287
I0
tp288
a((I0
I1
I2
I3
I4
tp289
I0
tp290
a((I0
I1
I2
tp291
I0
tp292
a((I0
I1
I2
I3
tp293
I0
tp294
a((I0
I1
I2
tp295
I0
tp296
a((I0
I1
I2
tp297
I0
tp298
a((I0
I1
I2
I3
tp299
I0
tp300
a((I0
I1
I2
tp301
I0
tp302
a((I0
I1
I2
I3
I4
I5
tp303
I0
tp304
a((I0
I1
I2
tp305
I0
tp306
a((I1
I2
I3
I4
tp307
I0
tp308
a((I1
I2
I3
I4
tp309
I0
tp310
a((I0
I1
I2
I3
I4
tp311
I0
tp312
a((I0
I1
I2
I3
tp313
I3
tp314
a((I0
I1
I2
tp315
I0
tp316
a((I0
I1
I2
I3
I4
tp317
I0
tp318
a((I1
I2
I3
I4
tp319
I2
tp320
a((I0
I1
I2
I3
tp321
I0
tp322
a((I0
I1
I2
I3
I5
tp323
I4
tp324
a((I0
I1
I2
I3
tp325
I3
tp326
a((I0
I1
I2
I3
tp327
I0
tp328
a((I0
I1
I2
I3
I4
I5
tp329
I0
tp330
a((I0
I1
I2
I4
tp331
I0
tp332
a((I0
I1
I2
I3
tp333
I0
tp334
a((I0
I1
I2
I3
I4
I5
tp335
I1
tp336
a((I0
I1
I2
I3
I4
I5
tp337
I1
tp338
a((I0
I1
I2
I3
I4
I5
tp339
I0
tp340
a((I0
I1
I2
tp341
I0
tp342
a((I0
I1
I2
I3
tp343
I3
tp344
a((I0
I1
I2
I3
I4
I5
tp345
I0
tp346
a((I0
I1
I2
I3
I4
I5
tp347
I0
tp348
a((I0
I1
I2
I3
I4
tp349
I0
tp350
a((I0
I1
I2
I3
I4
I5
tp351
I0
tp352
a((I0
I1
I2
I3
I4
I5
tp353
I0
tp354
a((I0
I1
I2
I3
tp355
I0
tp356
a((I0
I1
I2
tp357
I0
tp358
a((I0
I1
I2
I3
I4
I5
tp359
I0
tp360
a((I0
I1
I2
tp361
I0
tp362
a((I0
I1
I2
tp363
I0
tp364
a((I0
I1
I2
I3
tp365
I0
tp366
a((I0
I1
I2
I3
tp367
I1
tp368
a((I0
I1
I2
tp369
I0
tp370
a((I0
I1
I2
tp371
I1
tp372
a((I0
I1
I2
I3
I4
I5
tp373
I0
tp374
a((I0
I1
I2
tp375
I0
tp376
a((I0
I1
I2
tp377
I0
tp378
a((I0
I1
I2
I3
I4
I5
tp379
I0
tp380
a((I0
I1
I2
tp381
I0
tp382
a((I0
I1
I2
I3
tp383
I0
tp384
a((I0
I1
I2
I3
I4
I5
tp385
I0
tp386
a((I0
I1
I2
tp387
I0
tp388
a((I0
I1
I2
tp389
I0
tp390
a((I1
I2
I3
I4
I5
tp391
I4
tp392
a((I0
I1
I2
I3
I4
tp393
I3
tp394
a((I1
I2
I3
I5
tp395
I3
tp396
a((I0
I1
I2
I3
tp397
I0
tp398
a((I0
I1
I2
I3
I4
tp399
I0
tp400
a((I0
I1
I2
I3
tp401
I0
tp402
a((I0
I1
I2
tp403
I0
tp404
a((I0
I1
I2
I3
tp405
I0
tp406
a((I0
I1
I2
I3
I4
I5
tp407
I0
tp408
a((I0
I1
I2
tp409
I1
tp410
a((I0
I1
I2
tp411
I1
tp412
a((I0
I1
I2
I3
tp413
I3
tp414
a((I0
I1
I2
I3
I4
tp415
I0
tp416
a((I0
I1
I2
tp417
I0
tp418
a((I0
I1
I2
I3
tp419
I0
tp420
a((I0
I1
I2
tp421
I1
tp422
a((I0
I1
I2
I3
tp423
I0
tp424
a((I0
I1
I2
tp425
I0
tp426
a((I0
I1
I2
I3
I4
I5
tp427
I0
tp428
a((I0
I1
I2
I4
tp429
I0
tp430
a((I0
I1
I2
I3
tp431
I1
tp432
a((I1
I2
I3
I4
I5
tp433
I2
tp434
a((I0
I1
I2
I3
tp435
I0
tp436
a((I0
I1
I2
I3
I4
tp437
I1
tp438
a((I0
I1
I2
I3
tp439
I0
tp440
a((I0
I1
I2
I3
tp441
I0
tp442
a((I0
I1
I2
tp443
I0
tp444
a((I0
I1
I2
tp445
I0
tp446
a((I0
I1
I2
I3
I4
I5
tp447
I0
tp448
a((I0
I1
I2
I3
I4
tp449
I0
tp450
a((I0
I1
I2
I3
tp451
I2
tp452
a((I0
I1
I2
I3
tp453
I0
tp454
a((I0
I1
I2
I3
tp455
I0
tp456
a((I0
I1
I2
I3
I4
I5
tp457
I0
tp458
a((I0
I1
I2
I3
I5
tp459
I0
tp460
a((I0
I1
I2
I3
I5
tp461
I0
tp462
a((I0
I1
I2
I3
tp463
I0
tp464
a((I0
I1
I2
I3
I4
tp465
I0
tp466
a((I0
I1
I2
I3
tp467
I0
tp468
a((I0
I1
I2
I3
tp469
I0
tp470
a((I0
I1
I2
I3
tp471
I0
tp472
a((I0
I1
I2
I3
I4
I5
tp473
I0
tp474
a((I0
I1
I2
I3
tp475
I0
tp476
a((I0
I1
I2
I3
tp477
I0
tp478
a((I0
I1
I2
I3
tp479
I0
tp480
a((I0
I1
I2
tp481
I0
tp482
a((I0
I1
I2
I3
tp483
I3
tp484
a((I0
I1
I2
I3
I4
tp485
I0
tp486
a((I0
I1
I2
I3
I4
I5
tp487
I2
tp488
a((I0
I1
I2
I3
tp489
I3
tp490
a((I0
I1
I2
I3
tp491
I0
tp492
a((I0
I1
I2
I3
tp493
I0
tp494
a((I0
I1
I2
tp495
I0
tp496
a((I0
I1
I2
I3
I4
I5
tp497
I0
tp498
a((I0
I1
I2
I3
I5
tp499
I0
tp500
a((I0
I1
I2
I3
tp501
I1
tp502
a((I0
I1
I2
I3
I4
tp503
I0
tp504
a((I0
I1
I2
I3
tp505
I0
tp506
a((I1
I2
I3
tp507
I2
tp508
a((I0
I1
I2
I3
I4
tp509
I0
tp510
a((I0
I1
I2
I3
I4
tp511
I0
tp512
a((I0
I1
I2
I3
I4
tp513
I0
tp514
a((I0
I1
I2
I3
I4
tp515
I0
tp516
a((I0
I1
I2
I3
I4
I5
tp517
I0
tp518
a((I0
I1
I2
I3
tp519
I2
tp520
a((I0
I1
I2
I3
tp521
I3
tp522
a((I0
I1
I2
I3
tp523
I1
tp524
a((I0
I1
I2
I3
tp525
I1
tp526
a((I0
I1
I2
I3
I5
tp527
I0
tp528
a((I0
I1
I2
I3
I4
I5
tp529
I1
tp530
a((I0
I1
I2
I3
I4
I5
tp531
I1
tp532
a((I0
I1
I2
I3
tp533
I0
tp534
a((I0
I1
I2
I3
I4
tp535
I1
tp536
a((I0
I1
I2
I3
I4
tp537
I1
tp538
a((I0
I1
I2
I3
I4
tp539
I0
tp540
a((I0
I1
I2
I3
tp541
I0
tp542
a((I1
I2
I3
I4
I5
tp543
I4
tp544
a((I1
I2
I3
tp545
I2
tp546
a((I0
I1
I2
I3
tp547
I3
tp548
a((I0
I1
I2
I3
tp549
I0
tp550
a((I0
I1
I2
I3
I4
I5
tp551
I0
tp552
a((I0
I1
I2
I3
tp553
I0
tp554
a((I0
I1
I2
I3
I5
tp555
I0
tp556
a((I0
I1
I2
I3
tp557
I3
tp558
a((I0
I1
I2
I3
tp559
I3
tp560
a((I0
I1
I2
I3
tp561
I3
tp562
a((I0
I1
I2
I3
I4
tp563
I0
tp564
a((I0
I1
I2
I3
tp565
I0
tp566
a((I0
I1
I2
I3
tp567
I0
tp568
a((I0
I1
I2
I3
tp569
I3
tp570
a((I0
I1
I2
I3
tp571
I0
tp572
a((I0
I1
I2
I3
tp573
I0
tp574
a((I0
I1
I2
I3
tp575
I1
tp576
a((I0
I1
I2
I3
tp577
I3
tp578
a((I0
I1
I2
I3
I5
tp579
I4
tp580
a((I0
I1
I2
I3
I4
I5
tp581
I0
tp582
a((I0
I1
I2
tp583
I1
tp584
a((I0
I1
I2
I3
tp585
I1
tp586
a((I0
I1
I2
I3
I5
tp587
I0
tp588
a((I0
I1
I2
I3
I4
tp589
I0
tp590
a((I0
I1
I2
I3
tp591
I0
tp592
a((I0
I1
I2
tp593
I0
tp594
a((I0
I1
I2
I3
I4
I5
tp595
I0
tp596
a((I0
I1
I2
I3
I4
I5
tp597
I0
tp598
a((I1
I2
I3
I4
I5
tp599
I3
tp600
a((I0
I1
I2
I3
I5
tp601
I0
tp602
a((I1
I2
I3
tp603
I2
tp604
a((I0
I1
I2
I3
tp605
I3
tp606
a((I0
I1
I2
I3
I4
tp607
I1
tp608
a((I0
I1
I2
I3
I4
tp609
I1
tp610
a((I0
I1
I2
tp611
I1
tp612
a((I0
I1
I2
I3
tp613
I1
tp614
a((I0
I1
I2
I3
I5
tp615
I0
tp616
a((I0
I1
I2
I3
I4
I5
tp617
I0
tp618
a((I0
I1
I2
I3
tp619
I0
tp620
a((I0
I1
I2
I3
I4
tp621
I0
tp622
a((I0
I1
I2
I3
I4
I5
tp623
I1
tp624
a((I0
I1
I2
I3
tp625
I1
tp626
a((I0
I1
I2
I3
I5
tp627
I0
tp628
a((I0
I1
I2
tp629
I0
tp630
a((I0
I1
I2
I3
tp631
I0
tp632
a((I0
I1
I2
tp633
I0
tp634
a((I0
I1
I2
I3
I4
I5
tp635
I3
tp636
a((I0
I1
I2
I3
tp637
I3
tp638
a((I0
I1
I2
I3
I5
tp639
I0
tp640
a((I0
I1
I2
I3
tp641
I3
tp642
a((I0
I1
I2
I3
I4
I5
tp643
I5
tp644
a((I0
I1
I2
I3
tp645
I3
tp646
a((I1
I2
I3
tp647
I2
tp648
a((I0
I1
I2
I3
tp649
I0
tp650
a((I0
I1
I2
I3
I4
tp651
I2
tp652
a((I0
I1
I2
I3
tp653
I0
tp654
a((I0
I1
I2
tp655
I1
tp656
a((I0
I1
I2
I3
I5
tp657
I0
tp658
a((I0
I1
I2
I3
I4
tp659
I0
tp660
a((I0
I1
I2
I3
I4
tp661
I0
tp662
a((I0
I1
I2
I3
I4
tp663
I0
tp664
a((I0
I1
I2
I3
I4
I5
tp665
I0
tp666
a((I0
I1
I2
I3
tp667
I3
tp668
a((I0
I1
I2
I3
tp669
I3
tp670
a((I0
I1
I2
I3
I4
tp671
I0
tp672
a((I0
I1
I2
I3
I4
I5
tp673
I0
tp674
a((I0
I1
I2
I3
I4
I5
tp675
I0
tp676
a((I0
I1
I2
I3
I4
I5
tp677
I4
tp678
a((I0
I1
I2
I3
I4
tp679
I0
tp680
a((I0
I1
I2
I3
I4
tp681
I3
tp682
a((I0
I1
I2
I3
tp683
I3
tp684
a((I0
I1
I2
I3
I4
tp685
I0
tp686
a((I0
I1
I2
I3
I4
tp687
I0
tp688
a((I0
I1
I2
I3
I4
tp689
I0
tp690
a((I0
I1
I2
I4
tp691
I0
tp692
a((I0
I1
I2
I3
I4
tp693
I0
tp694
a((I0
I1
I2
I3
I4
I5
tp695
I3
tp696
a((I0
I1
I2
I3
I4
tp697
I0
tp698
a((I0
I1
I2
I3
tp699
I3
tp700
a((I0
I1
I2
I3
tp701
I3
tp702
a((I0
I1
I2
I3
I4
tp703
I0
tp704
a((I0
I1
I2
I3
I4
tp705
I0
tp706
a((I0
I1
I2
I3
I4
I5
tp707
I0
tp708
a((I0
I1
I2
tp709
I0
tp710
a((I0
I1
I2
tp711
I0
tp712
a((I0
I1
I2
I3
tp713
I2
tp714
a((I0
I1
I2
tp715
I0
tp716
a((I0
I1
I2
I3
I4
I5
tp717
I1
tp718
a((I0
I1
I2
tp719
I0
tp720
a((I0
I1
I2
tp721
I0
tp722
a((I0
I1
I2
I3
I5
tp723
I0
tp724
a((I0
I1
I2
I3
tp725
I0
tp726
a((I0
I1
I2
I3
I5
tp727
I0
tp728
a((I0
I1
I2
I3
tp729
I0
tp730
a((I0
I1
I2
I4
tp731
I0
tp732
a((I0
I1
I2
I3
I4
I5
tp733
I5
tp734
a((I0
I1
I2
I3
tp735
I3
tp736
a((I0
I1
I2
I3
tp737
I2
tp738
a((I0
I1
I2
tp739
I2
tp740
a((I0
I1
I2
I3
I4
I5
tp741
I0
tp742
a((I0
I1
I2
I3
I4
I5
tp743
I3
tp744
a((I1
I2
I3
I4
I5
tp745
I0
tp746
a((I0
I1
I2
I3
tp747
I0
tp748
a((I0
I1
I2
I3
I4
tp749
I1
tp750
a((I0
I1
I2
I3
I4
tp751
I2
tp752
a((I0
I1
I2
I3
tp753
I0
tp754
a((I0
I1
I2
I3
I4
I5
tp755
I5
tp756
a((I0
I1
I2
I3
tp757
I3
tp758
a((I0
I1
I2
I3
I5
tp759
I1
tp760
a((I0
I1
I2
I3
tp761
I1
tp762
a((I0
I1
I2
I3
I5
tp763
I0
tp764
a((I0
I1
I2
I3
I4
I5
tp765
I3
tp766
a((I0
I1
I2
I3
I5
tp767
I4
tp768
a((I0
I1
I2
I3
I4
I5
tp769
I0
tp770
a((I0
I1
I2
I3
I4
tp771
I0
tp772
a((I0
I1
I2
I3
I5
tp773
I0
tp774
a((I1
I2
I3
tp775
I2
tp776
a((I0
I1
I2
I3
tp777
I3
tp778
a((I0
I1
I2
I3
tp779
I3
tp780
a((I1
I2
I3
I5
tp781
I2
tp782
a((I0
I1
I2
I3
I5
tp783
I0
tp784
a((I0
I1
I2
I3
tp785
I3
tp786
a((I0
I1
I2
I3
I4
I5
tp787
I0
tp788
a((I0
I1
I2
I3
I4
I5
tp789
I0
tp790
a((I0
I1
I2
I3
I4
I5
tp791
I0
tp792
a((I1
I2
I3
tp793
I2
tp794
a((I0
I1
I2
I3
I4
I5
tp795
I0
tp796
a((I0
I1
I2
I3
I5
tp797
I4
tp798
a((I0
I1
I2
tp799
I1
tp800
a((I0
I1
I2
I3
tp801
I0
tp802
a((I0
I1
I2
I3
I5
tp803
I1
tp804
a((I0
I1
I2
I3
I4
I5
tp805
I5
tp806
a((I0
I1
I2
I3
tp807
I0
tp808
a((I0
I1
I2
I3
tp809
I0
tp810
a((I0
I1
I2
I3
tp811
I2
tp812
a((I0
I1
I2
I3
I4
tp813
I0
tp814
a((I0
I1
I2
I3
tp815
I0
tp816
a((I0
I1
I2
I3
tp817
I0
tp818
a((I0
I1
I2
I3
I4
I5
tp819
I5
tp820
a((I0
I1
I2
I3
tp821
I0
tp822
a((I0
I1
I2
I3
I4
I5
tp823
I0
tp824
a((I0
I1
I2
I3
I4
tp825
I0
tp826
a((I0
I1
I2
I3
I4
I5
tp827
I4
tp828
a((I0
I1
I2
I3
tp829
I1
tp830
a((I0
I1
I2
I3
tp831
I1
tp832
a((I0
I1
I2
I3
tp833
I0
tp834
a((I0
I1
I2
I3
tp835
I0
tp836
a((I0
I1
I2
I3
tp837
I0
tp838
a((I0
I1
I2
I3
I4
I5
tp839
I1
tp840
a((I1
I2
I3
I4
I5
tp841
I3
tp842
a((I1
I2
I3
I5
tp843
I3
tp844
a((I0
I1
I2
I3
I5
tp845
I0
tp846
a((I0
I1
I2
I3
tp847
I0
tp848
a((I0
I1
I2
I3
I4
I5
tp849
I0
tp850
a((I0
I1
I2
I3
tp851
I0
tp852
a((I0
I1
I2
I3
tp853
I3
tp854
a((I0
I1
I2
I3
I5
tp855
I1
tp856
a((I0
I1
I2
I3
I4
tp857
I0
tp858
a((I0
I1
I2
I3
tp859
I0
tp860
a((I0
I1
I2
tp861
I0
tp862
a((I0
I1
I2
I3
I5
tp863
I0
tp864
a((I0
I1
I2
I3
tp865
I0
tp866
a((I0
I1
I2
I3
I4
I5
tp867
I0
tp868
a((I0
I1
I2
tp869
I2
tp870
a((I0
I1
I2
I3
tp871
I2
tp872
a((I0
I1
I2
I3
I5
tp873
I0
tp874
a((I0
I1
I2
I3
I4
tp875
I0
tp876
a((I0
I1
I2
I3
tp877
I0
tp878
a((I0
I1
I2
I3
tp879
I0
tp880
a((I0
I1
I2
I3
tp881
I1
tp882
a((I0
I1
I2
I3
tp883
I1
tp884
a((I0
I1
I2
I3
I5
tp885
I0
tp886
a((I0
I1
I2
I3
tp887
I0
tp888
a((I0
I1
I2
I3
I4
I5
tp889
I0
tp890
a((I0
I1
I2
I3
I4
tp891
I0
tp892
a((I0
I1
I2
I3
I4
tp893
I0
tp894
a((I0
I1
I2
I3
tp895
I0
tp896
a((I0
I1
I2
I3
I4
I5
tp897
I0
tp898
a((I0
I1
I2
I3
I4
tp899
I0
tp900
a((I0
I1
I2
I3
tp901
I0
tp902
a((I0
I1
I2
tp903
I0
tp904
a((I0
I1
I2
I3
tp905
I0
tp906
a((I0
I1
I2
I3
tp907
I0
tp908
a((I0
I1
I2
I3
I4
tp909
I0
tp910
a((I0
I1
I2
I3
I4
tp911
I0
tp912
a((I0
I1
I2
I3
I4
I5
tp913
I0
tp914
a((I1
I2
I3
tp915
I2
tp916
a((I0
I1
I2
I3
tp917
I0
tp918
a((I1
I2
I3
I5
tp919
I2
tp920
a((I0
I1
I2
I3
I4
tp921
I1
tp922
a((I0
I1
I2
I3
tp923
I3
tp924
a((I0
I1
I2
I3
tp925
I2
tp926
a((I0
I1
I2
I3
I4
I5
tp927
I0
tp928
a((I0
I1
I2
I3
I4
tp929
I1
tp930
a((I1
I2
I3
tp931
I0
tp932
a((I0
I1
I2
I3
tp933
I0
tp934
a((I0
I1
I2
I3
I4
tp935
I0
tp936
a((I0
I1
I2
I3
tp937
I3
tp938
a((I0
I1
I2
I3
tp939
I3
tp940
a((I1
I2
I3
I5
tp941
I2
tp942
a((I1
I2
I3
tp943
I2
tp944
a((I0
I1
I2
I3
tp945
I0
tp946
a((I0
I1
I2
I3
I5
tp947
I3
tp948
a((I0
I1
I2
I3
tp949
I0
tp950
a((I0
I1
I2
I3
tp951
I3
tp952
a((I1
I2
I3
tp953
I2
tp954
a((I0
I1
I2
I3
I4
I5
tp955
I0
tp956
a((I0
I1
I2
I3
I4
tp957
I0
tp958
a((I1
I2
I3
I4
I5
tp959
I2
tp960
a((I0
I1
I2
I3
I5
tp961
I0
tp962
a((I0
I1
I2
I3
tp963
I0
tp964
a((I0
I1
I2
I3
I4
tp965
I1
tp966
a((I0
I1
I2
I3
I4
I5
tp967
I0
tp968
a((I0
I1
I2
I3
I4
tp969
I0
tp970
a((I0
I1
I2
I3
tp971
I0
tp972
a((I0
I1
I2
I3
tp973
I1
tp974
a((I0
I1
I2
I3
tp975
I1
tp976
a((I0
I1
I2
I3
tp977
I0
tp978
a((I0
I1
I2
tp979
I0
tp980
a((I0
I1
I2
I3
tp981
I2
tp982
a((I0
I1
I2
tp983
I0
tp984
a((I0
I1
I2
I3
I4
I5
tp985
I0
tp986
a((I0
I1
I2
I3
I4
I5
tp987
I0
tp988
a((I0
I1
I2
I3
I4
I5
tp989
I0
tp990
a((I0
I1
I2
I3
tp991
I0
tp992
a((I0
I1
I2
I3
I4
tp993
I0
tp994
a((I0
I1
I2
tp995
I0
tp996
a((I0
I1
I2
I3
I5
tp997
I0
tp998
a((I0
I1
I2
I3
tp999
I0
tp1000
a((I0
I1
I2
I3
I4
tp1001
I0
tp1002
a((I1
I2
I3
I4
I5
tp1003
I3
tp1004
a((I0
I1
I2
I3
tp1005
I0
tp1006
a((I0
I1
I2
I3
tp1007
I0
tp1008
a((I0
I1
I2
I3
I5
tp1009
I0
tp1010
a((I0
I1
I2
I3
tp1011
I3
tp1012
a((I0
I1
I2
I3
I5
tp1013
I0
tp1014
a((I0
I1
I2
I3
I4
tp1015
I0
tp1016
a((I0
I1
I2
I3
I4
tp1017
I0
tp1018
a((I0
I1
I2
I3
I5
tp1019
I0
tp1020
a((I0
I1
I2
I4
tp1021
I0
tp1022
a((I0
I1
I2
I3
tp1023
I0
tp1024
a((I0
I1
I2
I3
tp1025
I0
tp1026
a((I0
I1
I2
tp1027
I0
tp1028
a((I0
I1
I2
I3
tp1029
I0
tp1030
a((I0
I1
I2
tp1031
I0
tp1032
a((I0
I1
I2
I3
I5
tp1033
I0
tp1034
a((I0
I1
I2
I3
tp1035
I3
tp1036
a((I0
I1
I2
I3
I4
tp1037
I1
tp1038
a((I0
I1
I2
I3
tp1039
I0
tp1040
a((I0
I1
I2
I3
tp1041
I3
tp1042
a((I0
I1
I2
I3
tp1043
I0
tp1044
a((I0
I1
I2
I3
tp1045
I1
tp1046
a((I0
I1
I2
tp1047
I0
tp1048
a((I0
I1
I2
tp1049
I0
tp1050
a((I0
I1
I2
I3
tp1051
I1
tp1052
a((I0
I1
I2
I3
I4
tp1053
I0
tp1054
a((I0
I1
I2
tp1055
I0
tp1056
a((I0
I1
I2
I3
I4
I5
tp1057
I4
tp1058
a((I0
I1
I2
I3
tp1059
I3
tp1060
a((I0
I1
I2
I3
I4
I5
tp1061
I4
tp1062
a((I0
I1
I2
I3
I5
tp1063
I0
tp1064
a((I0
I1
I2
I3
tp1065
I3
tp1066
a((I0
I1
I2
I3
tp1067
I0
tp1068
a((I0
I1
I2
I3
I5
tp1069
I3
tp1070
a((I0
I1
I2
I3
I5
tp1071
I0
tp1072
a((I0
I1
I2
I3
I4
tp1073
I3
tp1074
a((I0
I1
I2
I3
I4
I5
tp1075
I0
tp1076
a((I0
I1
I2
I3
I4
tp1077
I2
tp1078
a((I0
I1
I2
I3
I4
I5
tp1079
I0
tp1080
a((I0
I1
I2
I3
I5
tp1081
I0
tp1082
a((I0
I1
I2
tp1083
I0
tp1084
a((I0
I1
I2
I3
tp1085
I3
tp1086
a((I0
I1
I2
I3
I4
tp1087
I3
tp1088
a((I0
I1
I2
I3
tp1089
I0
tp1090
a((I0
I1
I2
tp1091
I0
tp1092
a((I0
I1
I2
I3
I5
tp1093
I0
tp1094
a((I0
I1
I2
I3
I4
tp1095
I3
tp1096
a((I0
I1
I2
I3
I4
tp1097
I1
tp1098
a((I0
I1
I2
I3
tp1099
I0
tp1100
a((I0
I1
I2
I3
I4
I5
tp1101
I4
tp1102
a((I0
I1
I2
I3
tp1103
I3
tp1104
a((I1
I2
I3
I4
tp1105
I2
tp1106
a((I0
I1
I2
I3
tp1107
I0
tp1108
a((I0
I1
I2
I3
tp1109
I0
tp1110
a((I0
I1
I2
I3
tp1111
I3
tp1112
a((I0
I1
I2
I3
tp1113
I0
tp1114
a((I0
I1
I2
tp1115
I0
tp1116
a((I0
I1
I2
tp1117
I0
tp1118
a((I0
I1
I2
I3
I4
tp1119
I0
tp1120
a((I0
I1
I2
tp1121
I0
tp1122
a((I0
I1
I2
I3
I5
tp1123
I4
tp1124
a((I0
I1
I2
I3
tp1125
I0
tp1126
a((I0
I1
I2
I3
I4
I5
tp1127
I0
tp1128
a((I0
I1
I2
I3
tp1129
I3
tp1130
a((I0
I1
I2
I3
I4
I5
tp1131
I0
tp1132
a((I0
I1
I2
I3
tp1133
I0
tp1134
a((I0
I1
I2
I3
I4
tp1135
I0
tp1136
a((I0
I1
I2
I3
tp1137
I0
tp1138
a((I0
I1
I2
I3
I5
tp1139
I0
tp1140
a((I0
I1
I2
I3
tp1141
I2
tp1142
a((I1
I2
I3
tp1143
I2
tp1144
a((I0
I1
I2
tp1145
I0
tp1146
a((I0
I1
I2
I3
tp1147
I3
tp1148
a((I1
I2
I3
tp1149
I2
tp1150
a((I1
I2
I3
tp1151
I2
tp1152
a((I0
I1
I2
I3
tp1153
I3
tp1154
a((I0
I1
I2
I3
I5
tp1155
I0
tp1156
a((I0
I1
I2
tp1157
I0
tp1158
a((I1
I2
I3
I4
tp1159
I0
tp1160
a((I0
I1
I2
I3
tp1161
I0
tp1162
a((I0
I1
I2
I3
tp1163
I0
tp1164
a((I0
I1
I2
I3
tp1165
I0
tp1166
a((I0
I1
I2
I3
tp1167
I0
tp1168
a((I1
I2
I3
tp1169
I2
tp1170
a((I0
I1
I2
I3
tp1171
I0
tp1172
a((I0
I1
I2
I3
tp1173
I0
tp1174
a((I0
I1
I2
I3
I4
tp1175
I0
tp1176
a((I0
I1
I2
I3
I5
tp1177
I1
tp1178
a((I0
I1
I2
I3
I5
tp1179
I1
tp1180
a((I0
I1
I2
I3
tp1181
I0
tp1182
a((I0
I1
I2
I3
tp1183
I1
tp1184
a((I0
I1
I2
I3
I4
tp1185
I0
tp1186
a((I0
I1
I2
tp1187
I0
tp1188
a((I0
I1
I2
I3
I4
I5
tp1189
I0
tp1190
a((I0
I1
I2
I3
tp1191
I0
tp1192
a((I0
I1
I2
I3
I4
I5
tp1193
I0
tp1194
a((I0
I1
I2
I3
tp1195
I0
tp1196
a((I0
I1
I2
I3
I4
I5
tp1197
I0
tp1198
a((I0
I1
I2
I3
tp1199
I0
tp1200
a((I0
I1
I2
I3
I4
I5
tp1201
I0
tp1202
a((I0
I1
I2
I3
tp1203
I3
tp1204
a((I1
I2
I3
I5
tp1205
I0
tp1206
a((I0
I1
I2
I4
I5
tp1207
I0
tp1208
a((I0
I1
I2
I3
I4
I5
tp1209
I0
tp1210
a((I0
I1
I2
I3
I4
I5
tp1211
I0
tp1212
a((I0
I1
I2
I3
tp1213
I0
tp1214
a((I0
I1
I2
I3
I4
I5
tp1215
I0
tp1216
a((I0
I1
I2
I3
I5
tp1217
I4
tp1218
a((I0
I1
I2
I3
tp1219
I0
tp1220
a((I0
I1
I2
I3
I4
tp1221
I0
tp1222
a((I0
I1
I2
I3
I4
I5
tp1223
I0
tp1224
a((I0
I1
I2
I3
tp1225
I0
tp1226
a((I0
I1
I2
I3
I5
tp1227
I1
tp1228
a((I0
I1
I2
I3
I4
I5
tp1229
I0
tp1230
a((I0
I1
I2
I3
tp1231
I0
tp1232
a((I0
I1
I2
I3
tp1233
I1
tp1234
a((I0
I1
I2
tp1235
I0
tp1236
a((I0
I1
I2
tp1237
I0
tp1238
a((I0
I1
I2
I3
tp1239
I0
tp1240
a((I0
I1
I2
I3
tp1241
I1
tp1242
a((I0
I1
I2
tp1243
I0
tp1244
a((I0
I1
I2
tp1245
I0
tp1246
a((I0
I1
I2
I3
I4
tp1247
I0
tp1248
a((I0
I1
I2
I3
tp1249
I3
tp1250
a((I0
I1
I2
I3
I4
I5
tp1251
I1
tp1252
a((I0
I1
I2
I3
I4
I5
tp1253
I0
tp1254
a((I0
I1
I2
I3
tp1255
I0
tp1256
a((I0
I1
I2
I3
I5
tp1257
I0
tp1258
a((I0
I1
I2
I3
tp1259
I0
tp1260
a((I0
I1
I2
I3
tp1261
I0
tp1262
a((I0
I1
I2
I3
tp1263
I0
tp1264
a((I0
I1
I2
I3
I5
tp1265
I0
tp1266
a((I0
I1
I2
I3
tp1267
I3
tp1268
a((I0
I1
I2
I3
I5
tp1269
I0
tp1270
a((I0
I1
I2
I3
tp1271
I0
tp1272
a((I0
I1
I2
tp1273
I0
tp1274
a((I0
I1
I2
I3
tp1275
I0
tp1276
a((I0
I1
I2
I3
tp1277
I3
tp1278
a((I0
I1
I2
I3
tp1279
I3
tp1280
a((I0
I1
I2
I3
tp1281
I3
tp1282
a((I0
I1
I2
I3
tp1283
I3
tp1284
a((I1
I2
I3
tp1285
I2
tp1286
a((I0
I1
I2
I3
tp1287
I0
tp1288
a((I0
I1
I2
I3
I4
I5
tp1289
I5
tp1290
a((I0
I1
I2
I3
tp1291
I0
tp1292
a((I0
I1
I2
I3
tp1293
I2
tp1294
a((I0
I1
I2
I3
I4
tp1295
I0
tp1296
a((I0
I1
I2
I3
tp1297
I0
tp1298
a((I0
I1
I2
tp1299
I0
tp1300
a((I0
I1
I2
I3
tp1301
I2
tp1302
a((I0
I1
I2
I3
I4
I5
tp1303
I4
tp1304
a((I0
I1
I2
I3
I5
tp1305
I0
tp1306
a((I0
I1
I2
I3
tp1307
I0
tp1308
a((I0
I1
I2
tp1309
I0
tp1310
a((I0
I1
I2
I3
tp1311
I0
tp1312
a((I0
I1
I2
tp1313
I0
tp1314
a((I0
I1
I2
tp1315
I0
tp1316
a((I0
I1
I2
I3
I5
tp1317
I4
tp1318
a((I0
I1
I2
I3
I4
tp1319
I0
tp1320
a((I0
I1
I2
I3
tp1321
I0
tp1322
a((I0
I1
I2
I5
tp1323
I0
tp1324
a((I0
I1
I2
I3
tp1325
I1
tp1326
a((I0
I1
I2
tp1327
I0
tp1328
a((I0
I1
I2
tp1329
I0
tp1330
a((I0
I1
I2
tp1331
I1
tp1332
a((I0
I1
I2
I3
tp1333
I0
tp1334
a((I0
I1
I2
I3
tp1335
I0
tp1336
a((I0
I1
I2
tp1337
I0
tp1338
a((I0
I1
I2
I3
tp1339
I0
tp1340
a((I0
I1
I2
I3
I5
tp1341
I0
tp1342
a((I0
I1
I2
I3
tp1343
I3
tp1344
a((I0
I1
I2
I3
I4
I5
tp1345
I5
tp1346
a((I0
I1
I2
I3
I5
tp1347
I0
tp1348
a((I0
I1
I2
I3
I4
I5
tp1349
I4
tp1350
a((I0
I1
I2
I3
I4
tp1351
I2
tp1352
a((I0
I1
I2
I3
tp1353
I3
tp1354
a((I0
I1
I2
I3
I4
tp1355
I3
tp1356
a((I0
I1
I2
I3
tp1357
I0
tp1358
a((I0
I1
I2
I3
tp1359
I3
tp1360
a((I0
I1
I2
I3
I4
I5
tp1361
I4
tp1362
a((I1
I2
I3
tp1363
I2
tp1364
a((I0
I1
I2
I3
I4
tp1365
I0
tp1366
a((I0
I1
I2
I3
tp1367
I0
tp1368
a((I0
I1
I2
I3
I5
tp1369
I0
tp1370
a((I1
I2
I3
tp1371
I2
tp1372
a((I0
I1
I2
tp1373
I0
tp1374
a((I0
I1
I2
I3
I5
tp1375
I0
tp1376
a((I0
I1
I2
I3
I4
I5
tp1377
I0
tp1378
a((I0
I1
I2
I3
tp1379
I0
tp1380
a((I0
I1
I2
I3
I5
tp1381
I3
tp1382
a((I1
I2
I3
I4
tp1383
I0
tp1384
a((I1
I2
I3
tp1385
I2
tp1386
a((I0
I1
I2
I3
I4
I5
tp1387
I0
tp1388
a((I0
I1
I2
I3
I4
I5
tp1389
I0
tp1390
a((I0
I1
I2
tp1391
I0
tp1392
a((I0
I1
I2
I3
I4
I5
tp1393
I0
tp1394
a((I0
I1
I2
I3
tp1395
I0
tp1396
a((I0
I1
I2
I3
tp1397
I0
tp1398
a((I0
I1
I2
tp1399
I0
tp1400
a((I1
I2
I3
I4
I5
tp1401
I3
tp1402
a((I0
I1
I2
I3
tp1403
I3
tp1404
a((I0
I1
I2
I3
I4
tp1405
I3
tp1406
a((I0
I1
I2
I3
tp1407
I2
tp1408
a((I0
I1
I2
I3
tp1409
I0
tp1410
a((I0
I1
I2
I3
I5
tp1411
I0
tp1412
a((I1
I2
I3
I5
tp1413
I2
tp1414
a((I0
I1
I2
I3
I4
tp1415
I0
tp1416
a((I0
I1
I2
I3
I5
tp1417
I0
tp1418
a((I0
I1
I2
I3
I5
tp1419
I4
tp1420
a((I0
I1
I2
I3
I4
tp1421
I3
tp1422
a((I0
I1
I2
I3
I4
I5
tp1423
I0
tp1424
a((I0
I1
I2
I3
I4
I5
tp1425
I0
tp1426
a((I0
I1
I2
tp1427
I0
tp1428
a((I1
I2
I3
I5
tp1429
I2
tp1430
a((I0
I1
I2
I3
tp1431
I0
tp1432
a((I0
I1
I2
I3
I5
tp1433
I0
tp1434
a((I0
I1
I2
I3
I4
I5
tp1435
I0
tp1436
a((I0
I1
I2
I3
I4
I5
tp1437
I0
tp1438
a((I0
I1
I2
tp1439
I0
tp1440
a((I0
I1
I2
I3
I5
tp1441
I0
tp1442
a((I0
I1
I2
I3
tp1443
I0
tp1444
a((I0
I1
I2
I4
tp1445
I0
tp1446
a((I0
I1
I2
I3
tp1447
I0
tp1448
a((I0
I1
I2
tp1449
I0
tp1450
a((I0
I1
I2
tp1451
I0
tp1452
a((I0
I1
I2
I3
I5
tp1453
I0
tp1454
a((I0
I1
I2
I3
I4
tp1455
I0
tp1456
a((I0
I1
I2
I3
tp1457
I3
tp1458
a((I0
I1
I2
I3
tp1459
I0
tp1460
a((I0
I1
I2
tp1461
I0
tp1462
a((I0
I1
I2
I3
tp1463
I0
tp1464
a((I0
I1
I2
I3
tp1465
I0
tp1466
a((I0
I1
I2
I3
tp1467
I0
tp1468
a((I0
I1
I2
I3
I4
tp1469
I0
tp1470
a((I0
I1
I2
I3
tp1471
I0
tp1472
a((I0
I1
I2
I3
tp1473
I2
tp1474
a((I0
I1
I2
I3
tp1475
I2
tp1476
a((I0
I1
I2
I3
I4
I5
tp1477
I0
tp1478
a((I0
I1
I2
I3
I4
tp1479
I0
tp1480
a((I0
I1
I2
I3
I4
tp1481
I0
tp1482
a((I0
I1
I2
I3
I4
tp1483
I0
tp1484
a((I0
I1
I2
I3
tp1485
I0
tp1486
a((I0
I1
I2
I3
tp1487
I0
tp1488
a((I0
I1
I2
I3
I4
I5
tp1489
I0
tp1490
a((I0
I1
I2
I5
tp1491
I0
tp1492
a((I0
I1
I2
I3
tp1493
I0
tp1494
a((I0
I1
I2
I3
tp1495
I0
tp1496
a((I0
I1
I2
I3
tp1497
I0
tp1498
a((I0
I1
I2
I3
tp1499
I0
tp1500
a((I0
I1
I2
I3
tp1501
I0
tp1502
a((I0
I1
I2
I5
tp1503
I0
tp1504
a((I0
I1
I2
I3
tp1505
I2
tp1506
a((I0
I1
I2
I3
tp1507
I0
tp1508
a((I0
I1
I2
I3
I5
tp1509
I0
tp1510
a((I0
I1
I2
I3
tp1511
I0
tp1512
a((I0
I1
I2
I3
tp1513
I3
tp1514
a((I0
I1
I2
I3
tp1515
I0
tp1516
a((I0
I1
I2
I3
I5
tp1517
I0
tp1518
a((I0
I1
I2
I3
I5
tp1519
I0
tp1520
a((I0
I1
I2
I3
tp1521
I0
tp1522
a((I0
I1
I2
I3
I5
tp1523
I0
tp1524
a((I0
I1
I2
tp1525
I0
tp1526
a((I0
I1
I2
I3
tp1527
I3
tp1528
a((I0
I1
I2
I3
I4
tp1529
I0
tp1530
a((I0
I1
I2
I3
I4
I5
tp1531
I0
tp1532
a((I0
I1
I2
I3
I5
tp1533
I1
tp1534
a((I0
I1
I2
tp1535
I0
tp1536
a((I0
I1
I2
I3
tp1537
I0
tp1538
a((I0
I1
I2
I3
tp1539
I0
tp1540
a((I0
I1
I2
I4
I5
tp1541
I1
tp1542
a((I0
I1
I2
I4
I5
tp1543
I0
tp1544
a((I0
I1
I2
I3
tp1545
I0
tp1546
a((I0
I1
I2
I3
I5
tp1547
I1
tp1548
a((I0
I1
I2
I3
I5
tp1549
I1
tp1550
a((I0
I1
I2
tp1551
I0
tp1552
a((I0
I1
I2
tp1553
I1
tp1554
a((I1
I2
I3
I5
tp1555
I0
tp1556
a((I1
I2
I3
tp1557
I2
tp1558
a((I1
I2
I3
I5
tp1559
I2
tp1560
a((I0
I1
I2
I3
I5
tp1561
I3
tp1562
a((I0
I1
I2
I3
tp1563
I0
tp1564
a((I0
I1
I2
I3
I4
tp1565
I0
tp1566
a((I0
I1
I2
I3
I5
tp1567
I0
tp1568
a((I0
I1
I2
I3
tp1569
I0
tp1570
a((I0
I1
I2
I3
I5
tp1571
I0
tp1572
a((I0
I1
I2
I3
I5
tp1573
I0
tp1574
a((I0
I1
I2
I4
tp1575
I0
tp1576
a((I0
I1
I2
I3
tp1577
I0
tp1578
a((I0
I1
I2
I3
I4
tp1579
I0
tp1580
a((I0
I1
I2
I3
tp1581
I3
tp1582
a((I0
I1
I2
tp1583
I0
tp1584
a((I0
I1
I2
tp1585
I0
tp1586
a((I0
I1
I2
tp1587
I0
tp1588
a((I0
I1
I2
I3
I5
tp1589
I0
tp1590
a((I0
I1
I2
I3
I5
tp1591
I0
tp1592
a((I0
I1
I2
I3
I4
I5
tp1593
I0
tp1594
a((I0
I1
I2
tp1595
I1
tp1596
a((I0
I1
I2
I3
I5
tp1597
I1
tp1598
a((I1
I2
I3
I5
tp1599
I0
tp1600
a((I0
I1
I2
I3
I4
tp1601
I0
tp1602
a((I0
I1
I2
I3
tp1603
I0
tp1604
a((I0
I1
I2
I3
I4
I5
tp1605
I0
tp1606
a((I0
I1
I2
I3
tp1607
I0
tp1608
a((I0
I1
I2
I3
I4
I5
tp1609
I0
tp1610
a((I0
I1
I2
I3
I4
I5
tp1611
I0
tp1612
a((I0
I1
I2
I3
I4
I5
tp1613
I1
tp1614
a((I0
I1
I2
I3
tp1615
I0
tp1616
a((I0
I1
I2
I3
tp1617
I3
tp1618
a((I0
I1
I2
I3
tp1619
I0
tp1620
a((I0
I1
I2
I3
tp1621
I3
tp1622
a((I0
I1
I2
I3
tp1623
I3
tp1624
a((I0
I1
I2
I3
I5
tp1625
I0
tp1626
a((I0
I1
I2
tp1627
I0
tp1628
a((I0
I1
I2
tp1629
I0
tp1630
a((I0
I1
I2
I3
I4
I5
tp1631
I0
tp1632
a((I1
I2
I3
I4
I5
tp1633
I4
tp1634
a((I1
I2
I3
tp1635
I0
tp1636
a((I0
I1
I2
I3
I5
tp1637
I0
tp1638
a((I0
I1
I2
tp1639
I1
tp1640
a((I0
I1
I2
tp1641
I1
tp1642
a((I0
I1
I2
I3
I4
tp1643
I0
tp1644
a((I0
I1
I2
I3
tp1645
I0
tp1646
a((I0
I1
I2
tp1647
I0
tp1648
a((I0
I1
I2
I3
tp1649
I0
tp1650
a((I0
I1
I2
tp1651
I0
tp1652
a((I0
I1
I2
I3
tp1653
I0
tp1654
a((I0
I1
I2
I3
I4
I5
tp1655
I0
tp1656
a((I0
I1
I2
I3
tp1657
I0
tp1658
a((I0
I1
I2
I3
tp1659
I0
tp1660
a((I0
I1
I2
tp1661
I0
tp1662
a((I1
I2
I3
tp1663
I0
tp1664
a((I0
I1
I2
tp1665
I0
tp1666
a((I0
I1
I2
I3
I4
I5
tp1667
I0
tp1668
a((I1
I2
I3
I4
I5
tp1669
I4
tp1670
a((I0
I1
I2
I3
tp1671
I0
tp1672
a((I0
I1
I2
I3
I4
I5
tp1673
I0
tp1674
a((I0
I1
I2
I3
tp1675
I0
tp1676
a((I0
I1
I2
I3
I4
I5
tp1677
I0
tp1678
a((I0
I1
I2
tp1679
I0
tp1680
a((I0
I1
I2
I3
tp1681
I0
tp1682
a((I0
I1
I2
I3
I5
tp1683
I0
tp1684
a((I0
I1
I2
I3
I4
I5
tp1685
I0
tp1686
a((I0
I1
I2
tp1687
I0
tp1688
a((I0
I1
I2
tp1689
I0
tp1690
a((I0
I1
I2
I3
tp1691
I1
tp1692
a((I0
I1
I2
I3
I4
tp1693
I0
tp1694
a((I0
I1
I2
I3
tp1695
I0
tp1696
a((I0
I1
I2
I3
tp1697
I0
tp1698
a((I0
I1
I2
I3
tp1699
I0
tp1700
a((I0
I1
I2
I3
tp1701
I0
tp1702
a((I0
I1
I2
I3
I4
tp1703
I0
tp1704
a((I0
I1
I2
tp1705
I0
tp1706
a((I0
I1
I2
I3
I4
tp1707
I0
tp1708
a((I0
I1
I2
I3
tp1709
I0
tp1710
a((I0
I1
I2
I3
tp1711
I0
tp1712
a((I0
I1
I2
tp1713
I0
tp1714
a((I0
I1
I2
tp1715
I0
tp1716
a((I1
I2
I3
I4
I5
tp1717
I4
tp1718
a((I0
I1
I2
I3
I4
I5
tp1719
I0
tp1720
a((I0
I1
I2
I3
I4
I5
tp1721
I1
tp1722
a((I0
I1
I2
I3
I5
tp1723
I0
tp1724
a((I0
I1
I2
I3
I5
tp1725
I1
tp1726
a((I0
I1
I2
tp1727
I0
tp1728
a((I0
I1
I2
tp1729
I0
tp1730
a((I0
I1
I2
I3
I4
tp1731
I0
tp1732
a((I0
I1
I2
I3
I4
tp1733
I0
tp1734
a((I0
I1
I2
I4
tp1735
I0
tp1736
a((I0
I1
I2
I3
tp1737
I0
tp1738
a((I0
I1
I2
I3
I4
I5
tp1739
I0
tp1740
a((I0
I1
I2
I3
tp1741
I0
tp1742
a((I0
I1
I2
I4
tp1743
I0
tp1744
a((I0
I1
I2
I3
I4
I5
tp1745
I0
tp1746
a((I0
I1
I2
I3
tp1747
I3
tp1748
a((I0
I1
I2
tp1749
I0
tp1750
a((I0
I1
I2
I3
I4
tp1751
I0
tp1752
a((I0
I1
I2
I3
tp1753
I0
tp1754
a((I0
I1
I2
tp1755
I0
tp1756
a((I0
I1
I2
I3
I4
tp1757
I0
tp1758
a((I0
I1
I2
I3
tp1759
I0
tp1760
a((I0
I1
I2
I3
I4
tp1761
I0
tp1762
a((I0
I1
I2
I3
I4
I5
tp1763
I4
tp1764
a((I0
I1
I2
I3
tp1765
I3
tp1766
a((I0
I1
I2
I3
I4
tp1767
I0
tp1768
a((I0
I1
I2
I3
I4
tp1769
I0
tp1770
a((I0
I1
I2
I3
I4
tp1771
I0
tp1772
a((I0
I1
I2
tp1773
I0
tp1774
a((I0
I1
I2
I3
I5
tp1775
I0
tp1776
a((I0
I1
I2
I4
tp1777
I0
tp1778
a((I0
I1
I2
I3
tp1779
I0
tp1780
a((I0
I1
I2
I3
I4
tp1781
I0
tp1782
a((I0
I1
I2
I3
I4
I5
tp1783
I0
tp1784
a((I0
I1
I2
I3
I5
tp1785
I0
tp1786
a((I0
I1
I2
I3
tp1787
I0
tp1788
a((I0
I1
I2
I3
I4
I5
tp1789
I5
tp1790
a((I0
I1
I2
tp1791
I0
tp1792
a((I0
I1
I2
I3
tp1793
I0
tp1794
a((I0
I1
I2
I3
tp1795
I3
tp1796
a((I0
I1
I2
I3
tp1797
I3
tp1798
a((I0
I1
I2
I3
I4
tp1799
I0
tp1800
a((I0
I1
I2
tp1801
I0
tp1802
a((I0
I1
I2
I3
tp1803
I0
tp1804
a((I0
I1
I2
tp1805
I0
tp1806
a((I0
I1
I2
tp1807
I0
tp1808
a((I0
I1
I2
I3
tp1809
I3
tp1810
a((I0
I1
I2
I3
I4
I5
tp1811
I0
tp1812
a((I0
I1
I2
I3
I4
tp1813
I0
tp1814
a((I0
I1
I2
I3
tp1815
I0
tp1816
a((I0
I1
I2
I3
tp1817
I0
tp1818
a((I0
I1
I2
I3
tp1819
I0
tp1820
a((I0
I1
I2
I3
tp1821
I2
tp1822
a((I0
I1
I2
I3
tp1823
I0
tp1824
a((I0
I1
I2
I3
I5
tp1825
I0
tp1826
a((I0
I1
I2
I3
I5
tp1827
I0
tp1828
a((I0
I1
I2
I3
I5
tp1829
I0
tp1830
a((I0
I1
I2
tp1831
I0
tp1832
a((I0
I1
I2
I3
tp1833
I0
tp1834
a((I0
I1
I2
tp1835
I0
tp1836
a((I0
I1
I2
I3
I4
I5
tp1837
I3
tp1838
a((I0
I1
I2
I3
tp1839
I0
tp1840
a((I0
I1
I2
I3
tp1841
I3
tp1842
a((I0
I1
I2
I3
tp1843
I1
tp1844
a((I0
I1
I2
I3
tp1845
I0
tp1846
a((I0
I1
I2
I3
I5
tp1847
I4
tp1848
a((I0
I1
I2
I3
I4
I5
tp1849
I2
tp1850
a((I0
I1
I2
I3
I4
tp1851
I2
tp1852
a((I0
I1
I2
I3
I4
tp1853
I0
tp1854
a((I0
I1
I2
I3
tp1855
I2
tp1856
a((I0
I1
I2
I3
tp1857
I2
tp1858
a((I0
I1
I2
I3
tp1859
I0
tp1860
a((I0
I1
I2
I3
I5
tp1861
I4
tp1862
a((I0
I1
I2
I3
I4
I5
tp1863
I5
tp1864
a((I0
I1
I2
I3
tp1865
I0
tp1866
a((I0
I1
I2
I3
I4
I5
tp1867
I0
tp1868
a((I0
I1
I2
I3
I4
I5
tp1869
I0
tp1870
a((I0
I1
I2
I3
I4
tp1871
I4
tp1872
a((I0
I1
I2
I3
I4
tp1873
I0
tp1874
a((I0
I1
I2
I3
tp1875
I3
tp1876
a((I0
I1
I2
I3
I4
I5
tp1877
I2
tp1878
a((I0
I1
I2
I3
tp1879
I0
tp1880
a((I0
I1
I2
I3
tp1881
I3
tp1882
a((I0
I1
I2
I4
I5
tp1883
I0
tp1884
a((I0
I1
I2
tp1885
I0
tp1886
a((I0
I1
I2
I3
I4
I5
tp1887
I0
tp1888
a((I0
I1
I2
I3
I4
tp1889
I0
tp1890
a((I0
I1
I2
I3
tp1891
I0
tp1892
a((I0
I1
I2
I3
I4
I5
tp1893
I5
tp1894
a((I0
I1
I2
I3
I4
tp1895
I3
tp1896
a((I0
I1
I2
I3
I4
I5
tp1897
I0
tp1898
a((I0
I1
I2
I3
I4
tp1899
I0
tp1900
a((I1
I2
I3
I5
tp1901
I3
tp1902
a((I0
I1
I2
tp1903
I0
tp1904
a((I0
I1
I2
I3
I4
tp1905
I1
tp1906
a((I1
I2
I3
I4
tp1907
I2
tp1908
a((I0
I1
I2
I3
I4
tp1909
I0
tp1910
a((I0
I1
I2
tp1911
I0
tp1912
a((I0
I1
I2
I3
tp1913
I0
tp1914
a((I0
I1
I2
tp1915
I0
tp1916
a((I0
I1
I2
I3
I4
I5
tp1917
I0
tp1918
a((I0
I1
I2
I3
I4
tp1919
I2
tp1920
a((I0
I1
I2
I3
I4
tp1921
I0
tp1922
a((I0
I1
I2
I3
tp1923
I0
tp1924
a((I0
I1
I2
I3
tp1925
I0
tp1926
a((I0
I1
I2
I3
I5
tp1927
I0
tp1928
a((I0
I1
I2
tp1929
I0
tp1930
a((I0
I1
I2
tp1931
I1
tp1932
a((I0
I1
I2
tp1933
I1
tp1934
a((I0
I1
I2
I3
I4
I5
tp1935
I0
tp1936
a((I0
I1
I2
tp1937
I0
tp1938
a((I0
I1
I2
I3
I4
tp1939
I0
tp1940
a((I0
I1
I2
I4
I5
tp1941
I0
tp1942
a((I0
I1
I2
I3
I5
tp1943
I0
tp1944
a((I0
I1
I2
I3
I4
I5
tp1945
I0
tp1946
a((I0
I1
I2
tp1947
I0
tp1948
a((I0
I1
I2
I3
I5
tp1949
I0
tp1950
a((I0
I1
I2
I3
I5
tp1951
I0
tp1952
a((I0
I1
I2
I3
tp1953
I0
tp1954
a((I0
I1
I2
I3
tp1955
I0
tp1956
a((I0
I1
I2
tp1957
I2
tp1958
a((I0
I1
I2
I3
I4
tp1959
I0
tp1960
a((I0
I1
I2
I3
I5
tp1961
I0
tp1962
a((I0
I1
I2
I3
tp1963
I3
tp1964
a((I0
I1
I2
I3
tp1965
I0
tp1966
a((I0
I1
I2
I3
I4
I5
tp1967
I0
tp1968
a((I0
I1
I2
I3
I4
I5
tp1969
I1
tp1970
a((I0
I1
I2
I3
tp1971
I0
tp1972
a((I0
I1
I2
I3
I4
I5
tp1973
I4
tp1974
a((I0
I1
I2
I3
tp1975
I0
tp1976
a((I0
I1
I2
I3
I4
I5
tp1977
I5
tp1978
a((I0
I1
I2
I3
I5
tp1979
I0
tp1980
a((I0
I1
I2
I3
tp1981
I0
tp1982
a((I0
I1
I2
I3
tp1983
I1
tp1984
a((I0
I1
I2
tp1985
I0
tp1986
a((I0
I1
I2
I3
tp1987
I0
tp1988
a((I0
I1
I2
I3
tp1989
I0
tp1990
a((I0
I1
I2
tp1991
I0
tp1992
a((I0
I1
I2
tp1993
I0
tp1994
a((I0
I1
I2
I3
I4
tp1995
I0
tp1996
a((I1
I2
I3
tp1997
I2
tp1998
a((I0
I1
I2
I3
tp1999
I1
tp2000
a((I0
I1
I2
I3
tp2001
I3
tp2002
a((I0
I1
I2
I3
I4
I5
tp2003
I0
tp2004
a((I0
I1
I2
I3
I4
I5
tp2005
I5
tp2006
a((I0
I1
I2
I3
I4
I5
tp2007
I5
tp2008
a((I1
I2
I3
I4
tp2009
I2
tp2010
a((I0
I1
I2
I3
I4
I5
tp2011
I0
tp2012
a((I0
I1
I2
tp2013
I1
tp2014
a((I0
I1
I2
tp2015
I1
tp2016
a((I0
I1
I2
I3
I4
I5
tp2017
I1
tp2018
a((I0
I1
I2
I3
I4
tp2019
I0
tp2020
a((I0
I1
I2
I3
tp2021
I0
tp2022
a((I0
I1
I2
I3
tp2023
I0
tp2024
a((I0
I1
I2
I3
tp2025
I0
tp2026
a((I0
I1
I2
tp2027
I0
tp2028
a((I0
I1
I2
tp2029
I0
tp2030
a((I0
I1
I2
I3
I4
tp2031
I0
tp2032
a((I0
I1
I2
I3
tp2033
I1
tp2034
a((I0
I1
I2
I3
tp2035
I3
tp2036
a((I0
I1
I2
I3
I5
tp2037
I0
tp2038
a((I0
I1
I2
I3
I4
I5
tp2039
I0
tp2040
a((I0
I1
I2
I3
I4
I5
tp2041
I0
tp2042
a((I0
I1
I2
I3
tp2043
I0
tp2044
a((I0
I1
I2
I3
I5
tp2045
I0
tp2046
a((I0
I1
I2
I3
I5
tp2047
I0
tp2048
a((I0
I1
I2
I3
I5
tp2049
I2
tp2050
a((I0
I1
I2
I3
I5
tp2051
I2
tp2052
a((I0
I1
I2
I3
tp2053
I0
tp2054
a((I0
I1
I2
I3
tp2055
I0
tp2056
a((I0
I1
I2
I3
tp2057
I0
tp2058
a((I0
I1
I2
I3
I4
tp2059
I0
tp2060
a((I0
I1
I2
I3
I4
I5
tp2061
I0
tp2062
a((I0
I1
I2
I3
I4
I5
tp2063
I1
tp2064
a((I0
I1
I2
I3
tp2065
I0
tp2066
a((I0
I1
I2
I3
I4
I5
tp2067
I0
tp2068
a((I0
I1
I2
I3
I5
tp2069
I0
tp2070
a((I0
I1
I2
I3
tp2071
I3
tp2072
a((I0
I1
I2
I3
I4
tp2073
I0
tp2074
a((I0
I1
I2
I3
tp2075
I0
tp2076
a((I0
I1
I2
I3
I4
tp2077
I1
tp2078
a((I0
I1
I2
I3
I4
I5
tp2079
I0
tp2080
a((I0
I1
I2
I3
I4
tp2081
I0
tp2082
a((I0
I1
I2
I3
tp2083
I3
tp2084
a((I0
I1
I2
tp2085
I1
tp2086
a((I0
I1
I2
I3
I4
I5
tp2087
I0
tp2088
a((I0
I1
I2
I3
tp2089
I0
tp2090
a((I0
I1
I2
tp2091
I0
tp2092
a((I0
I1
I2
I3
I4
I5
tp2093
I3
tp2094
a((I0
I1
I2
I3
I4
I5
tp2095
I3
tp2096
a((I0
I1
I2
I3
tp2097
I0
tp2098
a((I0
I1
I2
I3
tp2099
I0
tp2100
a((I0
I1
I2
I3
tp2101
I0
tp2102
a((I0
I1
I2
I3
tp2103
I0
tp2104
a((I0
I1
I2
tp2105
I0
tp2106
a((I1
I2
I3
I5
tp2107
I2
tp2108
a((I0
I1
I2
I3
I5
tp2109
I0
tp2110
a((I0
I1
I2
I3
I4
I5
tp2111
I0
tp2112
a((I0
I1
I2
I3
tp2113
I3
tp2114
a((I0
I1
I2
tp2115
I0
tp2116
a((I0
I1
I2
I3
I5
tp2117
I3
tp2118
a((I0
I1
I2
I3
tp2119
I0
tp2120
a((I0
I1
I2
I3
tp2121
I0
tp2122
a((I0
I1
I2
I3
tp2123
I3
tp2124
a((I0
I1
I2
tp2125
I0
tp2126
a((I0
I1
I2
I3
I4
tp2127
I0
tp2128
a((I0
I1
I2
tp2129
I0
tp2130
a((I0
I1
I2
I3
tp2131
I0
tp2132
a((I1
I2
I3
I5
tp2133
I1
tp2134
a((I0
I1
I2
I3
tp2135
I3
tp2136
a((I0
I1
I2
I3
I5
tp2137
I0
tp2138
a((I0
I1
I2
tp2139
I0
tp2140
a((I0
I1
I2
I3
tp2141
I3
tp2142
a((I0
I1
I2
I4
tp2143
I0
tp2144
a((I0
I1
I2
I4
tp2145
I0
tp2146
a((I0
I1
I2
I3
tp2147
I3
tp2148
a((I0
I1
I2
tp2149
I2
tp2150
a((I0
I1
I2
I3
tp2151
I3
tp2152
a((I0
I1
I2
I3
tp2153
I0
tp2154
a((I0
I1
I2
tp2155
I0
tp2156
a((I0
I1
I2
I3
tp2157
I0
tp2158
a((I0
I1
I2
tp2159
I1
tp2160
a((I0
I1
I2
I3
I4
tp2161
I0
tp2162
a((I0
I1
I2
I3
I4
tp2163
I0
tp2164
a((I0
I1
I2
I3
I4
tp2165
I0
tp2166
a((I0
I1
I2
I3
I4
I5
tp2167
I0
tp2168
a((I1
I2
I3
I4
I5
tp2169
I3
tp2170
a((I0
I1
I2
I3
tp2171
I2
tp2172
a((I0
I1
I2
I3
I4
tp2173
I3
tp2174
a((I0
I1
I2
I3
tp2175
I0
tp2176
a((I0
I1
I2
tp2177
I0
tp2178
a((I1
I2
I3
tp2179
I1
tp2180
a((I0
I1
I2
I3
I5
tp2181
I0
tp2182
a((I0
I1
I2
I3
tp2183
I0
tp2184
a((I0
I1
I2
I3
tp2185
I3
tp2186
a((I0
I1
I2
tp2187
I0
tp2188
a((I0
I1
I2
I3
I4
tp2189
I0
tp2190
a((I0
I1
I2
I3
I5
tp2191
I0
tp2192
a((I0
I1
I2
I3
tp2193
I3
tp2194
a((I0
I1
I2
tp2195
I2
tp2196
a((I0
I1
I2
I4
tp2197
I0
tp2198
a((I0
I1
I2
tp2199
I0
tp2200
a((I0
I1
I2
I3
tp2201
I0
tp2202
a((I0
I1
I2
I3
tp2203
I2
tp2204
a((I0
I1
I2
I3
tp2205
I0
tp2206
a((I0
I1
I2
I3
tp2207
I0
tp2208
a((I0
I1
I2
tp2209
I1
tp2210
a((I0
I1
I2
I3
tp2211
I0
tp2212
a((I0
I1
I2
I3
tp2213
I0
tp2214
a((I0
I1
I2
I3
tp2215
I0
tp2216
a((I0
I1
I2
I3
tp2217
I0
tp2218
a((I0
I1
I2
I3
I5
tp2219
I4
tp2220
a((I0
I1
I2
I3
tp2221
I0
tp2222
a((I0
I1
I2
I3
I5
tp2223
I0
tp2224
a((I0
I1
I2
tp2225
I0
tp2226
a((I0
I1
I2
tp2227
I0
tp2228
a((I0
I1
I2
I3
I4
tp2229
I0
tp2230
a((I0
I1
I2
I3
I4
tp2231
I0
tp2232
a((I0
I1
I2
I3
tp2233
I1
tp2234
a((I0
I1
I2
I3
tp2235
I0
tp2236
a((I0
I1
I2
tp2237
I0
tp2238
a((I0
I1
I2
I3
I4
I5
tp2239
I0
tp2240
a((I0
I1
I2
I3
I4
tp2241
I3
tp2242
a((I0
I1
I2
I4
tp2243
I1
tp2244
a((I0
I1
I2
I3
I4
tp2245
I0
tp2246
a((I0
I1
I2
I3
tp2247
I0
tp2248
a((I0
I1
I2
I3
I5
tp2249
I0
tp2250
a((I0
I1
I2
tp2251
I1
tp2252
a((I1
I2
I3
I5
tp2253
I2
tp2254
a((I0
I1
I2
I3
I4
I5
tp2255
I1
tp2256
a((I0
I1
I2
I3
tp2257
I0
tp2258
a((I0
I1
I2
I3
tp2259
I0
tp2260
a((I0
I1
I2
I5
tp2261
I0
tp2262
a((I0
I1
I2
I3
tp2263
I0
tp2264
a((I0
I1
I2
tp2265
I0
tp2266
a((I0
I1
I2
I3
I5
tp2267
I4
tp2268
a((I0
I1
I2
I3
tp2269
I1
tp2270
a((I0
I1
I2
I3
tp2271
I0
tp2272
a((I0
I1
I2
I3
tp2273
I2
tp2274
a((I0
I1
I2
tp2275
I0
tp2276
a((I0
I1
I2
I3
I5
tp2277
I0
tp2278
a((I0
I1
I2
I3
I5
tp2279
I0
tp2280
a((I0
I1
I2
I3
I4
I5
tp2281
I0
tp2282
a((I0
I1
I2
I3
tp2283
I2
tp2284
a((I0
I1
I2
I3
tp2285
I2
tp2286
a((I0
I1
I2
I3
I4
tp2287
I0
tp2288
a((I0
I1
I2
I4
I5
tp2289
I2
tp2290
a((I0
I1
I2
I3
tp2291
I0
tp2292
a((I0
I1
I2
I3
I4
I5
tp2293
I0
tp2294
a((I0
I1
I2
I3
tp2295
I0
tp2296
a((I0
I1
I2
tp2297
I1
tp2298
a((I0
I1
I2
I3
tp2299
I0
tp2300
a((I0
I1
I2
I3
I4
tp2301
I0
tp2302
a((I0
I1
I2
I3
tp2303
I3
tp2304
a((I0
I1
I2
I3
I4
I5
tp2305
I0
tp2306
a((I0
I1
I2
tp2307
I0
tp2308
a((I0
I1
I2
I3
I4
I5
tp2309
I0
tp2310
a((I0
I1
I2
I3
I4
tp2311
I0
tp2312
a((I0
I1
I2
I3
I4
I5
tp2313
I0
tp2314
a((I0
I1
I2
I3
I4
tp2315
I0
tp2316
a((I0
I1
I2
I3
I4
I5
tp2317
I0
tp2318
a((I0
I1
I2
I3
tp2319
I0
tp2320
a((I0
I1
I2
tp2321
I0
tp2322
a((I0
I1
I2
I3
I4
tp2323
I0
tp2324
a((I0
I1
I2
I3
tp2325
I3
tp2326
a((I0
I1
I2
tp2327
I0
tp2328
a((I0
I1
I2
I3
tp2329
I0
tp2330
a((I0
I1
I2
I3
I4
I5
tp2331
I0
tp2332
a((I0
I1
I2
I3
I4
I5
tp2333
I0
tp2334
a((I0
I1
I2
I3
tp2335
I0
tp2336
a((I0
I1
I2
I3
tp2337
I0
tp2338
a((I0
I1
I2
I3
I4
tp2339
I0
tp2340
a((I0
I1
I2
I3
tp2341
I0
tp2342
a((I0
I1
I2
I3
I5
tp2343
I1
tp2344
a((I0
I1
I2
tp2345
I0
tp2346
a((I0
I1
I2
I3
I4
tp2347
I0
tp2348
a((I0
I1
I2
I3
tp2349
I0
tp2350
a((I0
I1
I2
I3
tp2351
I3
tp2352
a((I0
I1
I2
I3
tp2353
I0
tp2354
a((I0
I1
I2
I3
tp2355
I1
tp2356
a((I0
I1
I2
I3
tp2357
I1
tp2358
a((I0
I1
I2
I3
tp2359
I1
tp2360
a((I0
I1
I2
I3
tp2361
I0
tp2362
a((I0
I1
I2
I3
I5
tp2363
I0
tp2364
a((I0
I1
I2
I3
tp2365
I0
tp2366
a((I0
I1
I2
I3
I5
tp2367
I4
tp2368
a((I0
I1
I2
I3
tp2369
I3
tp2370
a((I0
I1
I2
I5
tp2371
I0
tp2372
a((I0
I1
I2
tp2373
I0
tp2374
a((I0
I1
I2
I3
I4
I5
tp2375
I0
tp2376
a((I0
I1
I2
I3
tp2377
I3
tp2378
a((I0
I1
I2
I3
tp2379
I0
tp2380
a((I0
I1
I2
I3
I4
I5
tp2381
I0
tp2382
a((I0
I1
I2
I3
I4
tp2383
I0
tp2384
a((I0
I1
I2
I4
tp2385
I0
tp2386
a((I0
I1
I2
I3
tp2387
I0
tp2388
a((I0
I1
I2
I3
I4
tp2389
I0
tp2390
a((I0
I1
I2
tp2391
I0
tp2392
a((I0
I1
I2
I3
tp2393
I0
tp2394
a((I0
I1
I2
I3
I4
I5
tp2395
I0
tp2396
a((I0
I1
I2
I3
tp2397
I0
tp2398
a((I0
I1
I2
I3
I4
I5
tp2399
I5
tp2400
a((I0
I1
I2
I3
I4
tp2401
I0
tp2402
a((I0
I1
I2
I3
tp2403
I3
tp2404
a((I0
I1
I2
I3
tp2405
I3
tp2406
a((I0
I1
I2
I3
I4
tp2407
I0
tp2408
a((I0
I1
I2
I3
tp2409
I0
tp2410
a((I0
I1
I2
I3
tp2411
I0
tp2412
a((I0
I1
I2
I3
tp2413
I0
tp2414
a((I0
I1
I2
tp2415
I0
tp2416
a((I0
I1
I2
I3
tp2417
I0
tp2418
a((I0
I1
I2
I3
I4
tp2419
I0
tp2420
a((I0
I1
I2
tp2421
I0
tp2422
a((I0
I1
I2
I3
I5
tp2423
I0
tp2424
a((I0
I1
I2
tp2425
I0
tp2426
a((I0
I1
I2
tp2427
I0
tp2428
a((I0
I1
I2
I3
I4
tp2429
I0
tp2430
a((I0
I1
I2
I3
tp2431
I0
tp2432
a((I0
I1
I2
I3
I4
tp2433
I0
tp2434
a((I0
I1
I2
I3
I4
tp2435
I0
tp2436
a((I0
I1
I2
I3
tp2437
I0
tp2438
a((I0
I1
I2
I3
tp2439
I3
tp2440
a((I0
I1
I2
I3
tp2441
I0
tp2442
a((I0
I1
I2
I3
I4
tp2443
I0
tp2444
a((I0
I1
I2
I3
I5
tp2445
I0
tp2446
a((I0
I1
I2
I3
tp2447
I0
tp2448
a((I0
I1
I2
I3
tp2449
I0
tp2450
a((I0
I1
I2
I3
tp2451
I0
tp2452
a((I0
I1
I2
I3
tp2453
I3
tp2454
a((I0
I1
I2
tp2455
I0
tp2456
a((I0
I1
I2
tp2457
I0
tp2458
a((I0
I1
I2
I3
I4
tp2459
I0
tp2460
a((I0
I1
I2
I3
tp2461
I0
tp2462
a((I0
I1
I2
I3
tp2463
I1
tp2464
a((I0
I1
I2
I3
tp2465
I1
tp2466
a((I0
I1
I2
I3
tp2467
I1
tp2468
a((I0
I1
I2
I3
tp2469
I0
tp2470
a((I0
I1
I2
tp2471
I0
tp2472
a((I0
I1
I2
I3
I4
I5
tp2473
I0
tp2474
a((I0
I1
I2
I3
tp2475
I2
tp2476
a((I0
I1
I2
I3
I4
I5
tp2477
I0
tp2478
a((I0
I1
I2
tp2479
I0
tp2480
a((I0
I1
I2
I3
tp2481
I2
tp2482
a((I0
I1
I2
I3
I4
I5
tp2483
I0
tp2484
a((I0
I1
I2
I3
tp2485
I3
tp2486
a((I1
I2
I3
tp2487
I0
tp2488
a((I0
I1
I2
I3
tp2489
I1
tp2490
a((I0
I1
I2
I3
tp2491
I0
tp2492
a((I0
I1
I2
I3
tp2493
I0
tp2494
a((I0
I1
I2
tp2495
I0
tp2496
a((I0
I1
I2
tp2497
I0
tp2498
a((I0
I1
I2
I3
tp2499
I0
tp2500
a((I0
I1
I2
tp2501
I0
tp2502
a((I0
I1
I2
tp2503
I1
tp2504
a((I0
I1
I2
I3
I4
I5
tp2505
I0
tp2506
a((I0
I1
I2
I3
I5
tp2507
I1
tp2508
a((I0
I1
I2
tp2509
I2
tp2510
a((I0
I1
I2
I3
tp2511
I0
tp2512
a((I0
I1
I2
I3
I4
tp2513
I0
tp2514
a((I0
I1
I2
tp2515
I0
tp2516
a((I0
I1
I2
I3
I4
tp2517
I0
tp2518
a((I0
I1
I2
I3
I5
tp2519
I0
tp2520
a((I0
I1
I2
I3
tp2521
I0
tp2522
a((I0
I1
I2
I3
tp2523
I0
tp2524
a((I0
I1
I2
tp2525
I0
tp2526
a((I0
I1
I2
I3
tp2527
I0
tp2528
a((I0
I1
I2
tp2529
I0
tp2530
a((I0
I1
I2
I3
tp2531
I3
tp2532
a((I0
I1
I2
I3
tp2533
I0
tp2534
a((I0
I1
I2
I3
tp2535
I3
tp2536
a((I0
I1
I2
I3
I4
I5
tp2537
I0
tp2538
a((I0
I1
I2
I3
I4
I5
tp2539
I0
tp2540
a((I0
I1
I2
tp2541
I0
tp2542
a((I0
I1
I2
I3
I4
I5
tp2543
I0
tp2544
a((I0
I1
I2
tp2545
I0
tp2546
a((I0
I1
I2
tp2547
I1
tp2548
a((I0
I1
I2
tp2549
I0
tp2550
a((I0
I1
I2
I3
tp2551
I0
tp2552
a((I0
I1
I2
tp2553
I0
tp2554
a((I0
I1
I2
I3
I4
tp2555
I1
tp2556
a((I0
I1
I2
I3
tp2557
I0
tp2558
a((I0
I1
I2
tp2559
I0
tp2560
a((I0
I1
I2
I3
I4
tp2561
I0
tp2562
a((I0
I1
I2
tp2563
I0
tp2564
a((I0
I1
I2
tp2565
I0
tp2566
a((I0
I1
I2
tp2567
I0
tp2568
a((I0
I1
I2
I3
tp2569
I1
tp2570
a((I0
I1
I2
tp2571
I0
tp2572
a((I0
I1
I2
tp2573
I0
tp2574
a((I0
I1
I2
I3
I4
tp2575
I0
tp2576
a((I0
I1
I2
tp2577
I0
tp2578
a((I0
I1
I2
I3
tp2579
I0
tp2580
a((I0
I1
I2
I3
tp2581
I0
tp2582
a((I0
I1
I2
I3
tp2583
I0
tp2584
a((I0
I1
I2
I3
tp2585
I0
tp2586
a((I0
I1
I2
I3
tp2587
I1
tp2588
a((I0
I1
I2
tp2589
I0
tp2590
a((I0
I1
I2
tp2591
I1
tp2592
a((I0
I1
I2
tp2593
I0
tp2594
a((I0
I1
I2
I3
I4
tp2595
I0
tp2596
a((I0
I1
I2
tp2597
I0
tp2598
a((I0
I1
I2
I3
I5
tp2599
I1
tp2600
a((I0
I1
I2
I3
I4
I5
tp2601
I0
tp2602
a((I0
I1
I2
tp2603
I0
tp2604
a((I0
I1
I2
tp2605
I0
tp2606
a((I0
I1
I2
I3
tp2607
I2
tp2608
a((I0
I1
I2
tp2609
I0
tp2610
a((I0
I1
I2
I3
tp2611
I0
tp2612
a((I0
I1
I2
I3
tp2613
I0
tp2614
a((I0
I1
I2
I3
tp2615
I0
tp2616
a((I0
I1
I2
tp2617
I0
tp2618
a((I0
I1
I2
I3
I4
I5
tp2619
I0
tp2620
a((I0
I1
I2
I3
I4
tp2621
I0
tp2622
a((I0
I1
I2
I3
I4
I5
tp2623
I0
tp2624
a((I1
I2
I3
tp2625
I2
tp2626
a((I0
I1
I2
I3
I4
tp2627
I0
tp2628
a((I0
I1
I2
tp2629
I0
tp2630
a((I0
I1
I2
I3
tp2631
I0
tp2632
a((I0
I1
I2
I3
tp2633
I0
tp2634
a((I0
I1
I2
I3
tp2635
I3
tp2636
a((I0
I1
I2
I3
I4
tp2637
I0
tp2638
a((I0
I1
I2
I3
tp2639
I0
tp2640
a((I0
I1
I2
I3
I4
tp2641
I0
tp2642
a((I0
I1
I2
tp2643
I2
tp2644
a((I0
I1
I2
I3
tp2645
I0
tp2646
a((I0
I1
I2
I3
I4
tp2647
I0
tp2648
a((I0
I1
I2
I3
I4
tp2649
I0
tp2650
a((I0
I1
I2
tp2651
I0
tp2652
a((I0
I1
I2
I3
I4
tp2653
I0
tp2654
a((I0
I1
I2
I3
I4
tp2655
I0
tp2656
a((I0
I1
I2
I3
tp2657
I0
tp2658
a((I0
I1
I2
I3
tp2659
I3
tp2660
a((I1
I2
I3
I4
I5
tp2661
I4
tp2662
a((I0
I1
I2
I3
tp2663
I0
tp2664
a((I0
I1
I2
I3
tp2665
I3
tp2666
a((I0
I1
I2
I3
tp2667
I0
tp2668
a((I0
I1
I2
I3
tp2669
I0
tp2670
a((I0
I1
I2
I3
tp2671
I1
tp2672
a((I0
I1
I2
I3
tp2673
I0
tp2674
a((I0
I1
I2
I3
tp2675
I0
tp2676
a((I0
I1
I2
I3
tp2677
I0
tp2678
a((I0
I1
I2
I3
tp2679
I0
tp2680
a((I0
I1
I2
I3
I4
I5
tp2681
I1
tp2682
a((I0
I1
I2
I3
I4
I5
tp2683
I1
tp2684
a((I0
I1
I2
tp2685
I1
tp2686
a((I0
I1
I2
I4
tp2687
I0
tp2688
a((I0
I1
I2
I3
I4
I5
tp2689
I0
tp2690
a((I0
I1
I2
I3
tp2691
I0
tp2692
a((I0
I1
I2
I3
tp2693
I0
tp2694
a((I0
I1
I2
I3
tp2695
I0
tp2696
a((I0
I1
I2
I3
I5
tp2697
I0
tp2698
a((I0
I1
I2
I3
I5
tp2699
I0
tp2700
a((I0
I1
I2
I3
tp2701
I3
tp2702
a((I0
I1
I2
I3
I5
tp2703
I0
tp2704
a((I0
I1
I2
I3
I4
I5
tp2705
I2
tp2706
a((I0
I1
I2
I3
tp2707
I0
tp2708
a((I0
I1
I2
tp2709
I0
tp2710
a((I0
I1
I2
I3
tp2711
I0
tp2712
a((I0
I1
I2
I3
I4
tp2713
I0
tp2714
a((I0
I1
I2
I3
I4
tp2715
I1
tp2716
a((I0
I1
I2
I3
tp2717
I0
tp2718
a((I0
I1
I2
I3
I4
tp2719
I0
tp2720
a((I0
I1
I2
tp2721
I0
tp2722
a((I0
I1
I2
I3
tp2723
I0
tp2724
a((I0
I1
I2
I3
I4
I5
tp2725
I0
tp2726
a((I0
I1
I2
tp2727
I0
tp2728
a((I0
I1
I2
I3
I4
tp2729
I0
tp2730
a((I0
I1
I2
I3
I4
I5
tp2731
I0
tp2732
a((I0
I1
I2
I3
I4
tp2733
I0
tp2734
a((I0
I1
I2
I3
I4
I5
tp2735
I0
tp2736
a((I0
I1
I2
tp2737
I0
tp2738
a((I0
I1
I2
I3
I4
I5
tp2739
I0
tp2740
a((I0
I1
I2
I3
I5
tp2741
I0
tp2742
a((I0
I1
I2
tp2743
I0
tp2744
a((I0
I1
I2
I3
tp2745
I0
tp2746
a((I0
I1
I2
I3
tp2747
I0
tp2748
a((I0
I1
I2
I3
I4
tp2749
I0
tp2750
a((I0
I1
I2
I3
tp2751
I0
tp2752
a((I0
I1
I2
I3
tp2753
I0
tp2754
a((I0
I1
I2
I3
tp2755
I0
tp2756
a((I0
I1
I2
tp2757
I0
tp2758
a((I0
I1
I2
I3
I4
I5
tp2759
I0
tp2760
a((I0
I1
I2
I3
I4
tp2761
I0
tp2762
a((I0
I1
I2
I3
tp2763
I3
tp2764
a((I0
I1
I2
I3
tp2765
I3
tp2766
a((I0
I1
I2
tp2767
I0
tp2768
a((I0
I1
I2
I3
tp2769
I0
tp2770
a((I0
I1
I2
I3
I5
tp2771
I0
tp2772
a((I0
I1
I2
I3
I5
tp2773
I0
tp2774
a((I0
I1
I2
I3
I4
tp2775
I0
tp2776
a((I0
I1
I2
I3
tp2777
I0
tp2778
a((I0
I1
I2
I3
I5
tp2779
I0
tp2780
a((I0
I1
I2
I3
I4
tp2781
I1
tp2782
a((I0
I1
I2
I3
I4
tp2783
I1
tp2784
a((I0
I1
I2
I3
I5
tp2785
I0
tp2786
a((I0
I1
I2
I3
I4
I5
tp2787
I0
tp2788
a((I0
I1
I2
I3
tp2789
I0
tp2790
a((I0
I1
I2
I3
tp2791
I0
tp2792
a((I0
I1
I2
I3
tp2793
I0
tp2794
a((I0
I1
I2
I3
tp2795
I0
tp2796
a((I0
I1
I2
I3
tp2797
I0
tp2798
a((I0
I1
I2
I3
I4
tp2799
I0
tp2800
a((I0
I1
I2
I3
tp2801
I0
tp2802
a((I0
I1
I2
I3
tp2803
I0
tp2804
a((I0
I1
I2
I3
I4
tp2805
I0
tp2806
a((I0
I1
I2
I3
tp2807
I0
tp2808
a((I0
I1
I2
I3
tp2809
I3
tp2810
a((I0
I1
I2
I3
I4
tp2811
I0
tp2812
a((I1
I2
I3
I4
I5
tp2813
I0
tp2814
a((I0
I1
I2
I3
tp2815
I0
tp2816
a((I0
I1
I2
I4
I5
tp2817
I0
tp2818
a((I0
I1
I2
I3
tp2819
I2
tp2820
a((I0
I1
I2
I3
tp2821
I0
tp2822
a((I0
I1
I2
I4
tp2823
I0
tp2824
a((I0
I1
I2
I3
tp2825
I0
tp2826
a((I0
I1
I2
I3
tp2827
I0
tp2828
a((I0
I1
I2
I3
tp2829
I2
tp2830
a((I0
I1
I2
tp2831
I0
tp2832
a((I0
I1
I2
I3
tp2833
I1
tp2834
a((I0
I1
I2
I3
tp2835
I0
tp2836
a((I0
I1
I2
I4
tp2837
I1
tp2838
a((I0
I1
I2
I3
tp2839
I0
tp2840
a((I0
I1
I2
I3
tp2841
I0
tp2842
a((I0
I1
I2
tp2843
I0
tp2844
a((I0
I1
I2
I3
tp2845
I2
tp2846
a((I0
I1
I2
I3
tp2847
I0
tp2848
a((I0
I1
I2
I3
tp2849
I0
tp2850
a((I0
I1
I2
tp2851
I0
tp2852
a((I0
I1
I2
tp2853
I0
tp2854
a((I0
I1
I2
tp2855
I0
tp2856
a((I0
I1
I2
tp2857
I0
tp2858
a((I0
I1
I2
I3
I4
tp2859
I0
tp2860
a((I0
I1
I2
I3
I5
tp2861
I0
tp2862
a((I0
I1
I2
tp2863
I0
tp2864
a((I0
I1
I2
I3
tp2865
I2
tp2866
a((I0
I1
I2
I3
I4
I5
tp2867
I0
tp2868
a((I0
I1
I2
tp2869
I0
tp2870
a((I0
I1
I2
I3
I4
I5
tp2871
I0
tp2872
a((I0
I1
I2
I3
I4
tp2873
I1
tp2874
a((I0
I1
I2
I3
I4
tp2875
I1
tp2876
a((I0
I1
I2
I3
I4
I5
tp2877
I0
tp2878
a((I0
I1
I2
tp2879
I0
tp2880
a((I0
I1
I2
tp2881
I0
tp2882
a((I0
I1
I2
I3
I5
tp2883
I0
tp2884
a((I0
I1
I2
I3
tp2885
I0
tp2886
a((I0
I1
I2
I3
tp2887
I0
tp2888
a((I0
I1
I2
I3
tp2889
I0
tp2890
a((I0
I1
I2
tp2891
I1
tp2892
a((I0
I1
I2
tp2893
I0
tp2894
a((I0
I1
I2
I3
I4
I5
tp2895
I0
tp2896
a((I0
I1
I2
tp2897
I0
tp2898
a((I0
I1
I2
tp2899
I0
tp2900
a((I0
I1
I2
tp2901
I0
tp2902
a((I0
I1
I2
I3
tp2903
I0
tp2904
a((I0
I1
I2
I3
I4
tp2905
I0
tp2906
a((I0
I1
I2
tp2907
I1
tp2908
a((I0
I1
I2
tp2909
I0
tp2910
a((I0
I1
I2
I3
tp2911
I0
tp2912
a((I0
I1
I2
tp2913
I0
tp2914
a((I0
I1
I2
I3
tp2915
I0
tp2916
a((I0
I1
I2
I3
I5
tp2917
I0
tp2918
a((I0
I1
I2
I3
tp2919
I0
tp2920
a((I0
I1
I2
I3
I5
tp2921
I0
tp2922
a((I0
I1
I2
tp2923
I2
tp2924
a((I0
I1
I2
tp2925
I0
tp2926
a((I0
I1
I2
I3
tp2927
I0
tp2928
a((I0
I1
I2
I3
I4
I5
tp2929
I0
tp2930
a((I0
I1
I2
I3
I5
tp2931
I1
tp2932
a((I0
I1
I2
tp2933
I1
tp2934
a((I0
I1
I2
I3
I5
tp2935
I0
tp2936
a((I0
I1
I2
tp2937
I0
tp2938
a((I0
I1
I2
I3
I5
tp2939
I0
tp2940
a((I0
I1
I2
I3
I4
I5
tp2941
I0
tp2942
a((I0
I1
I2
I3
I4
I5
tp2943
I0
tp2944
a((I0
I1
I2
I3
tp2945
I3
tp2946
a((I0
I1
I2
I3
I4
I5
tp2947
I1
tp2948
a((I0
I1
I2
tp2949
I0
tp2950
a((I0
I1
I2
I3
I4
tp2951
I0
tp2952
a((I0
I1
I2
I3
tp2953
I0
tp2954
a((I0
I1
I2
I3
I4
tp2955
I0
tp2956
a((I0
I1
I2
I3
I4
tp2957
I0
tp2958
a((I0
I1
I2
I3
I4
tp2959
I0
tp2960
a((I0
I1
I2
I3
I5
tp2961
I0
tp2962
a((I0
I1
I2
I3
I5
tp2963
I1
tp2964
a((I0
I1
I2
I3
tp2965
I0
tp2966
a((I0
I1
I2
tp2967
I2
tp2968
a((I0
I1
I2
I3
tp2969
I0
tp2970
a((I0
I1
I2
I3
tp2971
I0
tp2972
a((I0
I1
I2
tp2973
I0
tp2974
a((I0
I1
I2
I3
I4
I5
tp2975
I0
tp2976
a((I0
I1
I2
I3
I4
I5
tp2977
I0
tp2978
a((I0
I1
I2
tp2979
I0
tp2980
a((I0
I1
I2
tp2981
I0
tp2982
a((I0
I1
I2
tp2983
I0
tp2984
a((I0
I1
I2
I3
I5
tp2985
I1
tp2986
a((I0
I1
I2
I3
I4
I5
tp2987
I1
tp2988
a((I0
I1
I2
I3
I5
tp2989
I0
tp2990
a((I0
I1
I2
I3
tp2991
I3
tp2992
a((I1
I2
I3
tp2993
I2
tp2994
a((I0
I1
I2
tp2995
I0
tp2996
a((I0
I1
I2
I3
I5
tp2997
I0
tp2998
a((I0
I1
I2
I3
I4
tp2999
I0
tp3000
a((I0
I1
I2
I3
I4
tp3001
I0
tp3002
a((I0
I1
I2
I3
tp3003
I0
tp3004
a((I0
I1
I2
tp3005
I0
tp3006
a((I0
I1
I2
tp3007
I0
tp3008
a((I0
I1
I2
I3
I4
tp3009
I0
tp3010
a((I0
I1
I2
I3
I4
I5
tp3011
I0
tp3012
a((I0
I1
I2
I3
I5
tp3013
I0
tp3014
a((I0
I1
I2
tp3015
I0
tp3016
a((I0
I1
I2
I3
I4
tp3017
I0
tp3018
a((I0
I1
I2
I3
I4
I5
tp3019
I0
tp3020
a((I0
I1
I2
I3
I4
tp3021
I0
tp3022
a((I0
I1
I2
tp3023
I0
tp3024
a((I0
I1
I2
I3
tp3025
I0
tp3026
a((I0
I1
I2
I3
tp3027
I1
tp3028
a((I0
I1
I2
I3
tp3029
I1
tp3030
a((I0
I1
I2
tp3031
I0
tp3032
a((I1
I2
I3
I4
tp3033
I0
tp3034
a((I0
I1
I2
tp3035
I0
tp3036
a((I0
I1
I2
tp3037
I0
tp3038
a((I0
I1
I2
I3
tp3039
I0
tp3040
a((I0
I1
I2
I3
I4
tp3041
I0
tp3042
a((I0
I1
I2
I3
I4
tp3043
I0
tp3044
a((I0
I1
I2
I3
I4
I5
tp3045
I1
tp3046
a((I0
I1
I2
I4
tp3047
I0
tp3048
a((I0
I1
I2
tp3049
I0
tp3050
a((I0
I1
I2
I3
tp3051
I0
tp3052
a((I0
I1
I2
I3
I4
I5
tp3053
I0
tp3054
a((I0
I1
I2
I3
tp3055
I0
tp3056
a((I0
I1
I2
I3
tp3057
I2
tp3058
a((I0
I1
I2
I3
I4
I5
tp3059
I0
tp3060
a((I0
I1
I2
I3
tp3061
I0
tp3062
a((I0
I1
I2
I3
tp3063
I0
tp3064
a((I0
I1
I2
I3
tp3065
I3
tp3066
a((I0
I1
I2
tp3067
I1
tp3068
a((I0
I1
I2
I3
tp3069
I0
tp3070
a((I0
I1
I2
tp3071
I2
tp3072
a((I0
I1
I2
I3
I4
I5
tp3073
I5
tp3074
a((I0
I1
I2
I3
tp3075
I0
tp3076
a((I0
I1
I2
I3
tp3077
I3
tp3078
a((I0
I1
I2
I3
I4
I5
tp3079
I0
tp3080
a((I0
I1
I2
I3
tp3081
I0
tp3082
a((I0
I1
I2
I3
tp3083
I0
tp3084
a((I0
I1
I2
tp3085
I0
tp3086
a((I0
I1
I2
tp3087
I0
tp3088
a((I0
I1
I2
I3
I5
tp3089
I4
tp3090
a((I0
I1
I2
I3
I4
I5
tp3091
I0
tp3092
a((I0
I1
I2
I3
tp3093
I0
tp3094
a((I0
I1
I2
I3
I4
tp3095
I0
tp3096
a((I0
I1
I2
I3
I4
tp3097
I0
tp3098
a((I0
I1
I2
tp3099
I0
tp3100
a((I0
I1
I2
I3
I4
I5
tp3101
I0
tp3102
a((I0
I1
I2
I3
tp3103
I0
tp3104
a((I0
I1
I2
tp3105
I0
tp3106
a((I0
I1
I2
tp3107
I1
tp3108
a((I0
I1
I2
tp3109
I0
tp3110
a((I0
I1
I2
I4
tp3111
I1
tp3112
a((I0
I1
I2
tp3113
I0
tp3114
a((I0
I1
I2
I3
tp3115
I0
tp3116
a((I0
I1
I2
I3
tp3117
I0
tp3118
a((I0
I1
I2
I3
I5
tp3119
I0
tp3120
a((I0
I1
I2
I3
tp3121
I0
tp3122
a((I0
I1
I2
I3
I5
tp3123
I0
tp3124
a((I0
I1
I2
tp3125
I2
tp3126
a((I0
I1
I2
tp3127
I0
tp3128
a((I0
I1
I2
tp3129
I0
tp3130
a((I0
I1
I2
tp3131
I2
tp3132
a((I0
I1
I2
I3
tp3133
I3
tp3134
a((I0
I1
I2
I3
I4
I5
tp3135
I0
tp3136
a((I0
I1
I2
I3
I4
tp3137
I0
tp3138
a((I0
I1
I2
I3
I4
I5
tp3139
I0
tp3140
a((I0
I1
I2
I3
I4
I5
tp3141
I0
tp3142
a((I0
I1
I2
I3
I4
I5
tp3143
I0
tp3144
a((I0
I1
I2
I3
I4
I5
tp3145
I1
tp3146
a((I0
I1
I2
I3
tp3147
I0
tp3148
a((I0
I1
I2
tp3149
I1
tp3150
a((I0
I1
I2
I3
I4
I5
tp3151
I0
tp3152
a((I0
I1
I2
tp3153
I0
tp3154
a((I0
I1
I2
tp3155
I0
tp3156
a((I0
I1
I2
tp3157
I0
tp3158
a((I0
I1
I2
tp3159
I0
tp3160
a((I0
I1
I2
I3
tp3161
I0
tp3162
a((I0
I1
I2
I3
tp3163
I0
tp3164
a((I0
I1
I2
tp3165
I0
tp3166
a((I0
I1
I2
I4
I5
tp3167
I0
tp3168
a((I0
I1
I2
I3
I4
tp3169
I0
tp3170
a((I0
I1
I2
I3
I4
tp3171
I0
tp3172
a((I0
I1
I2
I3
I4
tp3173
I1
tp3174
a((I0
I1
I2
I3
I4
tp3175
I1
tp3176
a((I0
I1
I2
I3
I4
I5
tp3177
I0
tp3178
a((I0
I1
I2
I3
tp3179
I0
tp3180
a((I0
I1
I2
I3
tp3181
I0
tp3182
a((I0
I1
I2
tp3183
I0
tp3184
a((I0
I1
I2
I3
I4
tp3185
I0
tp3186
a((I0
I1
I2
I3
I4
I5
tp3187
I0
tp3188
a((I0
I1
I2
tp3189
I0
tp3190
a((I0
I1
I2
I3
tp3191
I0
tp3192
a((I0
I1
I2
tp3193
I0
tp3194
a((I0
I1
I2
I3
I4
tp3195
I0
tp3196
a((I0
I1
I2
I3
tp3197
I1
tp3198
a((I0
I1
I2
I3
tp3199
I0
tp3200
a((I0
I1
I2
tp3201
I0
tp3202
a((I0
I1
I2
I3
tp3203
I2
tp3204
a((I0
I1
I2
I3
I4
tp3205
I0
tp3206
a((I0
I1
I2
I3
tp3207
I0
tp3208
a((I0
I1
I2
I3
tp3209
I0
tp3210
a((I0
I1
I2
I3
I4
I5
tp3211
I0
tp3212
a((I0
I1
I2
I3
I5
tp3213
I0
tp3214
a((I0
I1
I2
tp3215
I0
tp3216
a((I0
I1
I2
I3
tp3217
I0
tp3218
a((I0
I1
I2
I3
tp3219
I0
tp3220
a((I0
I1
I2
I4
tp3221
I0
tp3222
a((I0
I1
I2
I3
tp3223
I0
tp3224
a((I0
I1
I2
I3
tp3225
I0
tp3226
a((I0
I1
I2
I3
I4
I5
tp3227
I0
tp3228
a((I0
I1
I2
tp3229
I0
tp3230
a((I0
I1
I2
I3
tp3231
I0
tp3232
a((I0
I1
I2
tp3233
I0
tp3234
a((I0
I1
I2
I3
tp3235
I0
tp3236
a((I0
I1
I2
I3
tp3237
I0
tp3238
a((I0
I1
I2
I3
tp3239
I1
tp3240
a((I0
I1
I2
I3
tp3241
I1
tp3242
a((I0
I1
I2
I3
I4
I5
tp3243
I0
tp3244
a((I0
I1
I2
I5
tp3245
I0
tp3246
a((I0
I1
I2
I3
tp3247
I0
tp3248
a((I0
I1
I2
I3
tp3249
I0
tp3250
a((I0
I1
I2
I3
I4
I5
tp3251
I0
tp3252
a((I0
I1
I2
I4
tp3253
I0
tp3254
a((I0
I1
I2
tp3255
I0
tp3256
a((I0
I1
I2
I5
tp3257
I0
tp3258
a((I0
I1
I2
I4
tp3259
I0
tp3260
a((I0
I1
I2
I3
tp3261
I0
tp3262
a((I1
I2
I3
tp3263
I2
tp3264
a((I0
I1
I2
I3
tp3265
I0
tp3266
a((I0
I1
I2
I3
I4
tp3267
I0
tp3268
a((I0
I1
I2
I3
I5
tp3269
I1
tp3270
a((I0
I1
I2
I3
tp3271
I3
tp3272
a((I0
I1
I2
tp3273
I0
tp3274
a((I0
I1
I2
I4
tp3275
I0
tp3276
a((I0
I1
I2
I3
I4
tp3277
I0
tp3278
a((I0
I1
I2
I3
tp3279
I0
tp3280
a((I0
I1
I2
I3
I4
tp3281
I0
tp3282
a((I0
I1
I2
I3
I4
tp3283
I0
tp3284
a((I0
I1
I2
I3
tp3285
I3
tp3286
a((I0
I1
I2
I3
tp3287
I1
tp3288
a((I0
I1
I2
I3
tp3289
I1
tp3290
a((I0
I1
I2
tp3291
I0
tp3292
a((I0
I1
I2
I3
I4
I5
tp3293
I0
tp3294
a((I0
I1
I2
I3
tp3295
I0
tp3296
a((I0
I1
I2
I3
tp3297
I0
tp3298
a((I0
I1
I2
I3
tp3299
I0
tp3300
a((I0
I1
I2
tp3301
I0
tp3302
a((I0
I1
I2
I3
tp3303
I3
tp3304
a((I0
I1
I2
I3
tp3305
I3
tp3306
a((I0
I1
I2
I3
tp3307
I0
tp3308
a((I0
I1
I2
I3
I4
I5
tp3309
I0
tp3310
a((I0
I1
I2
tp3311
I0
tp3312
a((I0
I1
I2
I3
tp3313
I3
tp3314
a((I0
I1
I2
I3
I4
tp3315
I0
tp3316
a((I0
I1
I2
I3
tp3317
I0
tp3318
a((I0
I1
I2
I3
I4
tp3319
I0
tp3320
a((I0
I1
I2
I3
tp3321
I0
tp3322
a((I0
I1
I2
I3
I4
I5
tp3323
I5
tp3324
a((I0
I1
I2
I3
tp3325
I0
tp3326
a((I0
I1
I2
I3
tp3327
I0
tp3328
a((I0
I1
I2
I3
I4
tp3329
I0
tp3330
a((I0
I1
I2
I3
I5
tp3331
I0
tp3332
a((I0
I1
I2
I3
tp3333
I3
tp3334
a((I0
I1
I2
I3
I5
tp3335
I4
tp3336
a((I0
I1
I2
I3
tp3337
I0
tp3338
a((I0
I1
I2
I3
tp3339
I0
tp3340
a((I0
I1
I2
I3
I4
I5
tp3341
I0
tp3342
a((I0
I1
I2
I3
tp3343
I0
tp3344
a((I0
I1
I2
I3
tp3345
I0
tp3346
a((I0
I1
I2
I3
tp3347
I0
tp3348
a((I0
I1
I2
I3
I4
tp3349
I0
tp3350
a((I0
I1
I2
I3
tp3351
I3
tp3352
a((I0
I1
I2
I3
I4
I5
tp3353
I0
tp3354
a((I0
I1
I2
I3
tp3355
I2
tp3356
a((I0
I1
I2
I3
I4
tp3357
I1
tp3358
a((I0
I1
I2
I3
tp3359
I0
tp3360
a((I0
I1
I2
I3
tp3361
I0
tp3362
a((I0
I1
I2
tp3363
I0
tp3364
a((I0
I1
I2
I3
I4
tp3365
I0
tp3366
a((I0
I1
I2
I3
I4
I5
tp3367
I0
tp3368
a((I0
I1
I2
I3
I5
tp3369
I0
tp3370
a((I0
I1
I2
tp3371
I0
tp3372
a((I0
I1
I2
I3
tp3373
I3
tp3374
a((I0
I1
I2
I4
tp3375
I0
tp3376
a((I0
I1
I2
I3
I4
I5
tp3377
I0
tp3378
a((I0
I1
I2
tp3379
I0
tp3380
a((I0
I1
I2
I3
tp3381
I1
tp3382
a((I0
I1
I2
I3
tp3383
I0
tp3384
a((I0
I1
I2
I3
tp3385
I3
tp3386
a((I0
I1
I2
I3
tp3387
I2
tp3388
a((I0
I1
I2
I3
tp3389
I1
tp3390
a((I0
I1
I2
I3
tp3391
I1
tp3392
a((I0
I1
I2
I3
I4
tp3393
I0
tp3394
a((I0
I1
I2
I3
I4
I5
tp3395
I0
tp3396
a((I0
I1
I2
I3
tp3397
I2
tp3398
a((I0
I1
I2
tp3399
I0
tp3400
a((I0
I1
I2
tp3401
I0
tp3402
a((I0
I1
I2
I3
I4
tp3403
I0
tp3404
a((I0
I1
I2
tp3405
I0
tp3406
a((I0
I1
I2
I3
tp3407
I0
tp3408
a((I0
I1
I2
I3
I5
tp3409
I0
tp3410
a((I0
I1
I2
I3
I4
I5
tp3411
I3
tp3412
a((I0
I1
I2
I3
tp3413
I0
tp3414
a((I0
I1
I2
I3
tp3415
I0
tp3416
a((I0
I1
I2
I3
tp3417
I0
tp3418
a((I0
I1
I2
tp3419
I1
tp3420
a((I0
I1
I2
I4
tp3421
I0
tp3422
a((I0
I1
I2
I3
I5
tp3423
I1
tp3424
a((I0
I1
I2
I3
I5
tp3425
I0
tp3426
a((I0
I1
I2
I3
I4
tp3427
I0
tp3428
a((I0
I1
I2
I3
I4
tp3429
I0
tp3430
a((I0
I1
I2
I3
I5
tp3431
I0
tp3432
a((I0
I1
I2
I3
I4
I5
tp3433
I0
tp3434
a((I0
I1
I2
I3
tp3435
I0
tp3436
a((I0
I1
I2
I3
I4
I5
tp3437
I0
tp3438
a((I0
I1
I2
I3
tp3439
I0
tp3440
a((I0
I1
I2
I3
tp3441
I0
tp3442
a((I0
I1
I2
I3
tp3443
I3
tp3444
a((I0
I1
I2
I3
I4
I5
tp3445
I3
tp3446
a((I0
I1
I2
I3
tp3447
I0
tp3448
a((I0
I1
I2
I3
I4
tp3449
I0
tp3450
a((I0
I1
I2
I3
I4
tp3451
I0
tp3452
a((I0
I1
I2
I3
I4
tp3453
I0
tp3454
a((I0
I1
I2
I3
tp3455
I0
tp3456
a((I0
I1
I2
I3
I4
I5
tp3457
I0
tp3458
a((I0
I1
I2
I3
I4
tp3459
I0
tp3460
a((I0
I1
I2
I3
tp3461
I0
tp3462
a((I0
I1
I2
tp3463
I0
tp3464
a((I0
I1
I2
I3
tp3465
I0
tp3466
a((I0
I1
I2
tp3467
I0
tp3468
a((I0
I1
I2
I3
I4
I5
tp3469
I0
tp3470
a((I0
I1
I2
I3
tp3471
I3
tp3472
a((I0
I1
I2
I3
I5
tp3473
I0
tp3474
a((I0
I1
I2
I3
tp3475
I3
tp3476
a((I0
I1
I2
I3
I5
tp3477
I0
tp3478
a((I0
I1
I2
I3
tp3479
I3
tp3480
a((I0
I1
I2
I3
tp3481
I0
tp3482
a((I0
I1
I2
tp3483
I1
tp3484
a((I0
I1
I2
tp3485
I0
tp3486
a((I0
I1
I2
tp3487
I0
tp3488
a((I0
I1
I2
I3
I4
I5
tp3489
I0
tp3490
a((I0
I1
I2
I3
tp3491
I0
tp3492
a((I0
I1
I2
I3
tp3493
I0
tp3494
a((I0
I1
I2
I3
tp3495
I3
tp3496
a((I0
I1
I2
I3
I4
tp3497
I0
tp3498
a((I0
I1
I2
I3
tp3499
I3
tp3500
a((I0
I1
I2
I3
I4
tp3501
I0
tp3502
a((I0
I1
I2
I3
tp3503
I0
tp3504
a((I0
I1
I2
I3
I4
I5
tp3505
I0
tp3506
a((I0
I1
I2
I3
I4
I5
tp3507
I5
tp3508
a((I0
I1
I2
I3
I4
I5
tp3509
I0
tp3510
a((I0
I1
I2
I3
tp3511
I1
tp3512
a((I0
I1
I2
I3
tp3513
I1
tp3514
a((I0
I1
I2
I3
I4
I5
tp3515
I1
tp3516
a((I0
I1
I2
I3
I4
I5
tp3517
I0
tp3518
a((I0
I1
I2
I3
I5
tp3519
I4
tp3520
a((I0
I1
I2
I3
tp3521
I0
tp3522
a((I0
I1
I2
I3
tp3523
I0
tp3524
a((I0
I1
I2
I3
I4
I5
tp3525
I0
tp3526
a((I0
I1
I2
I3
tp3527
I0
tp3528
a((I0
I1
I2
tp3529
I0
tp3530
a((I0
I1
I2
tp3531
I0
tp3532
a((I0
I1
I2
tp3533
I1
tp3534
a((I0
I1
I2
tp3535
I0
tp3536
a((I0
I1
I2
I3
I4
tp3537
I0
tp3538
a((I0
I1
I2
I3
tp3539
I0
tp3540
a((I0
I1
I2
I3
tp3541
I3
tp3542
a((I0
I1
I2
I3
tp3543
I3
tp3544
a((I0
I1
I2
tp3545
I0
tp3546
a((I0
I1
I2
I3
tp3547
I1
tp3548
a((I0
I1
I2
I3
tp3549
I1
tp3550
a((I0
I1
I2
I3
tp3551
I0
tp3552
a((I0
I1
I2
I3
tp3553
I3
tp3554
a((I0
I1
I2
I3
I5
tp3555
I0
tp3556
a((I0
I1
I2
I3
tp3557
I0
tp3558
a((I0
I1
I2
I3
I4
tp3559
I0
tp3560
a((I0
I1
I2
I3
tp3561
I0
tp3562
a((I0
I1
I2
I3
I4
tp3563
I0
tp3564
a((I0
I1
I2
I3
tp3565
I3
tp3566
a((I0
I1
I2
I3
tp3567
I0
tp3568
a((I0
I1
I2
I3
tp3569
I3
tp3570
a((I0
I1
I2
tp3571
I0
tp3572
a((I0
I1
I2
I3
tp3573
I0
tp3574
a((I0
I1
I2
I3
tp3575
I0
tp3576
a((I0
I1
I2
I3
I4
I5
tp3577
I0
tp3578
a((I0
I1
I2
I3
tp3579
I0
tp3580
a((I0
I1
I2
tp3581
I0
tp3582
a((I0
I1
I2
I3
I4
tp3583
I0
tp3584
a((I0
I1
I2
I3
tp3585
I0
tp3586
a((I0
I1
I2
I3
tp3587
I0
tp3588
a((I0
I1
I2
I3
tp3589
I0
tp3590
a((I0
I1
I2
I3
tp3591
I0
tp3592
a((I0
I1
I2
I3
tp3593
I0
tp3594
a((I0
I1
I2
I3
I4
tp3595
I0
tp3596
a((I0
I1
I2
I3
I5
tp3597
I4
tp3598
a((I0
I1
I2
I3
I4
I5
tp3599
I0
tp3600
a((I0
I1
I2
tp3601
I0
tp3602
a((I0
I1
I2
I3
tp3603
I3
tp3604
a((I0
I1
I2
I3
tp3605
I0
tp3606
a((I0
I1
I2
I3
I4
tp3607
I0
tp3608
a((I0
I1
I2
I3
I4
I5
tp3609
I0
tp3610
a((I0
I1
I2
I3
tp3611
I0
tp3612
a((I0
I1
I2
I3
tp3613
I3
tp3614
a((I0
I1
I2
I3
I5
tp3615
I0
tp3616
a((I0
I1
I2
I3
tp3617
I0
tp3618
a((I0
I1
I2
tp3619
I0
tp3620
a((I0
I1
I2
I3
tp3621
I3
tp3622
a((I0
I1
I2
I3
tp3623
I3
tp3624
a((I0
I1
I2
I3
tp3625
I3
tp3626
a((I0
I1
I2
tp3627
I0
tp3628
a((I0
I1
I2
I3
tp3629
I0
tp3630
a((I0
I1
I2
I3
tp3631
I0
tp3632
a((I0
I1
I2
I3
tp3633
I1
tp3634
a((I0
I1
I2
I3
I4
I5
tp3635
I4
tp3636
a((I1
I2
I3
tp3637
I2
tp3638
a((I0
I1
I2
tp3639
I0
tp3640
a((I0
I1
I2
tp3641
I0
tp3642
a((I0
I1
I2
tp3643
I2
tp3644
a((I0
I1
I2
I3
I5
tp3645
I0
tp3646
a((I0
I1
I2
I3
tp3647
I0
tp3648
a((I0
I1
I2
I3
I5
tp3649
I0
tp3650
a((I0
I1
I2
I3
I4
tp3651
I0
tp3652
a((I0
I1
I2
tp3653
I0
tp3654
a((I0
I1
I2
I3
tp3655
I0
tp3656
a((I0
I1
I2
I3
tp3657
I0
tp3658
a((I0
I1
I2
tp3659
I0
tp3660
a((I0
I1
I2
I5
tp3661
I0
tp3662
a((I0
I1
I2
tp3663
I1
tp3664
a((I0
I1
I2
I3
I4
tp3665
I0
tp3666
a((I0
I1
I2
I3
tp3667
I0
tp3668
a((I0
I1
I2
tp3669
I0
tp3670
a((I0
I1
I2
tp3671
I0
tp3672
a((I0
I1
I2
tp3673
I0
tp3674
a((I0
I1
I2
tp3675
I2
tp3676
a((I0
I1
I2
I3
I4
tp3677
I0
tp3678
a((I0
I1
I2
I3
I4
I5
tp3679
I0
tp3680
a((I0
I1
I2
I4
tp3681
I0
tp3682
a((I0
I1
I2
I4
tp3683
I0
tp3684
a((I0
I1
I2
tp3685
I0
tp3686
a((I0
I1
I2
tp3687
I0
tp3688
a((I0
I1
I2
I3
I4
tp3689
I0
tp3690
a((I0
I1
I2
I3
tp3691
I0
tp3692
a((I0
I1
I2
I3
tp3693
I1
tp3694
a((I0
I1
I2
I3
tp3695
I1
tp3696
a((I0
I1
I2
I3
tp3697
I3
tp3698
a((I0
I1
I2
I3
tp3699
I3
tp3700
a((I0
I1
I2
tp3701
I1
tp3702
a((I0
I1
I2
I3
tp3703
I0
tp3704
a((I0
I1
I2
I3
tp3705
I0
tp3706
a((I0
I1
I2
I3
I4
tp3707
I0
tp3708
a((I0
I1
I2
tp3709
I0
tp3710
a((I0
I1
I2
I3
tp3711
I0
tp3712
a((I0
I1
I2
I3
tp3713
I0
tp3714
a((I0
I1
I2
tp3715
I0
tp3716
a((I0
I1
I2
I3
tp3717
I3
tp3718
a((I0
I1
I2
I3
I4
tp3719
I0
tp3720
a((I0
I1
I2
I3
I4
tp3721
I0
tp3722
a((I0
I1
I2
tp3723
I2
tp3724
a((I0
I1
I2
I3
I4
tp3725
I0
tp3726
a((I0
I1
I2
tp3727
I0
tp3728
a((I0
I1
I2
I3
I4
tp3729
I0
tp3730
a((I0
I1
I2
I3
I4
I5
tp3731
I0
tp3732
a((I0
I1
I2
tp3733
I0
tp3734
a((I0
I1
I2
I3
tp3735
I3
tp3736
a((I0
I1
I2
I3
I4
I5
tp3737
I5
tp3738
a((I0
I1
I2
I3
I4
tp3739
I0
tp3740
a((I0
I1
I2
I5
tp3741
I0
tp3742
a((I0
I1
I2
I3
I4
tp3743
I0
tp3744
a((I0
I1
I2
I3
tp3745
I0
tp3746
a((I1
I2
I3
I4
I5
tp3747
I1
tp3748
a((I0
I1
I2
I4
tp3749
I0
tp3750
a((I0
I1
I2
I3
tp3751
I0
tp3752
a((I0
I1
I2
I3
I4
tp3753
I0
tp3754
a((I0
I1
I2
I3
I4
tp3755
I0
tp3756
a((I1
I2
I3
I4
I5
tp3757
I4
tp3758
a((I0
I1
I2
tp3759
I0
tp3760
a((I0
I1
I2
I3
I4
I5
tp3761
I0
tp3762
a((I0
I1
I2
I3
I4
I5
tp3763
I0
tp3764
a((I0
I1
I2
I3
tp3765
I1
tp3766
a((I0
I1
I2
tp3767
I1
tp3768
a((I0
I1
I2
I3
I4
tp3769
I0
tp3770
a((I0
I1
I2
I3
I4
I5
tp3771
I0
tp3772
a((I0
I1
I2
I3
I4
tp3773
I0
tp3774
a((I0
I1
I2
I3
I4
tp3775
I0
tp3776
a((I0
I1
I2
I3
I4
tp3777
I0
tp3778
a((I0
I1
I2
I3
I4
I5
tp3779
I0
tp3780
a((I0
I1
I2
I3
tp3781
I0
tp3782
a((I0
I1
I2
I3
tp3783
I0
tp3784
a((I0
I1
I2
I3
tp3785
I0
tp3786
a((I0
I1
I2
I3
tp3787
I3
tp3788
a((I0
I1
I2
I3
tp3789
I0
tp3790
a((I0
I1
I2
tp3791
I0
tp3792
a((I0
I1
I2
I3
tp3793
I0
tp3794
a((I0
I1
I2
I3
tp3795
I0
tp3796
a((I0
I1
I2
I3
I5
tp3797
I0
tp3798
a((I0
I1
I2
I3
tp3799
I0
tp3800
a((I0
I1
I2
I3
tp3801
I0
tp3802
a((I0
I1
I2
I3
I5
tp3803
I0
tp3804
a((I0
I1
I2
I3
tp3805
I0
tp3806
a((I0
I1
I2
I3
I5
tp3807
I0
tp3808
a((I0
I1
I2
I3
I4
tp3809
I0
tp3810
a((I0
I1
I2
I4
tp3811
I0
tp3812
a((I0
I1
I2
I3
tp3813
I0
tp3814
a((I0
I1
I2
I3
tp3815
I0
tp3816
a((I0
I1
I2
tp3817
I0
tp3818
a((I0
I1
I2
I3
I4
tp3819
I0
tp3820
a((I0
I1
I2
I3
I4
I5
tp3821
I0
tp3822
a((I0
I1
I2
I3
tp3823
I2
tp3824
a((I0
I1
I2
I3
tp3825
I0
tp3826
a((I0
I1
I2
tp3827
I0
tp3828
a((I0
I1
I2
I3
tp3829
I0
tp3830
a((I0
I1
I2
I3
tp3831
I0
tp3832
a((I0
I1
I2
I3
tp3833
I2
tp3834
a((I0
I1
I2
I3
tp3835
I3
tp3836
a((I0
I1
I2
I3
I4
tp3837
I1
tp3838
a((I0
I1
I2
tp3839
I0
tp3840
a((I0
I1
I2
tp3841
I0
tp3842
a((I0
I1
I2
I3
I4
tp3843
I0
tp3844
a((I0
I1
I2
I3
I5
tp3845
I0
tp3846
a((I0
I1
I2
I3
tp3847
I0
tp3848
a((I0
I1
I2
I3
tp3849
I0
tp3850
a((I0
I1
I2
tp3851
I0
tp3852
a((I0
I1
I2
I3
tp3853
I0
tp3854
a((I0
I1
I2
I4
I5
tp3855
I0
tp3856
a((I0
I1
I2
tp3857
I1
tp3858
a((I0
I1
I2
tp3859
I0
tp3860
a((I0
I1
I2
I3
I5
tp3861
I1
tp3862
a((I0
I1
I2
tp3863
I0
tp3864
a((I0
I1
I2
tp3865
I0
tp3866
a((I0
I1
I2
I3
tp3867
I0
tp3868
a((I0
I1
I2
I3
tp3869
I0
tp3870
a((I0
I1
I2
I3
tp3871
I0
tp3872
a((I0
I1
I2
I3
tp3873
I0
tp3874
a((I0
I1
I2
I3
tp3875
I0
tp3876
a((I0
I1
I2
I3
I4
tp3877
I0
tp3878
a((I0
I1
I2
tp3879
I0
tp3880
a((I0
I1
I2
I3
tp3881
I0
tp3882
a((I0
I1
I2
I3
I5
tp3883
I0
tp3884
a((I0
I1
I2
tp3885
I0
tp3886
a((I0
I1
I2
I3
tp3887
I0
tp3888
a((I0
I1
I2
tp3889
I0
tp3890
a((I0
I1
I2
I3
I4
I5
tp3891
I0
tp3892
a((I0
I1
I2
I4
tp3893
I0
tp3894
a((I0
I1
I2
I3
tp3895
I0
tp3896
a((I0
I1
I2
I3
I4
tp3897
I0
tp3898
a((I0
I1
I2
I3
tp3899
I1
tp3900
a((I0
I1
I2
I3
tp3901
I1
tp3902
a((I0
I1
I2
tp3903
I0
tp3904
a((I0
I1
I2
I3
tp3905
I3
tp3906
a((I0
I1
I2
I3
tp3907
I3
tp3908
a((I0
I1
I2
I3
tp3909
I0
tp3910
a((I0
I1
I2
tp3911
I0
tp3912
a((I0
I1
I2
I3
tp3913
I0
tp3914
a((I0
I1
I2
tp3915
I0
tp3916
a((I0
I1
I2
I3
I4
I5
tp3917
I0
tp3918
a((I1
I2
I3
tp3919
I2
tp3920
a((I0
I1
I2
I3
I4
I5
tp3921
I0
tp3922
a((I0
I1
I2
I3
I4
tp3923
I0
tp3924
a((I0
I1
I2
tp3925
I1
tp3926
a((I0
I1
I2
I4
tp3927
I1
tp3928
a((I0
I1
I2
I3
I4
tp3929
I0
tp3930
a((I0
I1
I2
tp3931
I0
tp3932
a((I0
I1
I2
I3
tp3933
I0
tp3934
a((I0
I1
I2
tp3935
I0
tp3936
a((I0
I1
I2
I3
tp3937
I2
tp3938
a((I0
I1
I2
I3
tp3939
I0
tp3940
a((I0
I1
I2
tp3941
I0
tp3942
a((I0
I1
I2
tp3943
I0
tp3944
a((I0
I1
I2
tp3945
I0
tp3946
a((I0
I1
I2
I3
tp3947
I0
tp3948
a((I0
I1
I2
I3
tp3949
I1
tp3950
a((I0
I1
I2
tp3951
I0
tp3952
a((I0
I1
I2
I3
tp3953
I0
tp3954
a((I0
I1
I2
tp3955
I0
tp3956
a((I0
I1
I2
I3
tp3957
I0
tp3958
a((I0
I1
I2
I3
I5
tp3959
I0
tp3960
a((I0
I1
I2
tp3961
I0
tp3962
a((I0
I1
I2
I3
tp3963
I0
tp3964
a((I0
I1
I2
I3
tp3965
I0
tp3966
a((I1
I2
I3
I5
tp3967
I0
tp3968
a((I0
I1
I2
I3
I4
I5
tp3969
I0
tp3970
a((I0
I1
I2
I3
I4
tp3971
I0
tp3972
a((I0
I1
I2
I3
I4
tp3973
I0
tp3974
a((I0
I1
I2
I3
tp3975
I3
tp3976
a((I0
I1
I2
I3
I4
I5
tp3977
I0
tp3978
a((I0
I1
I2
I3
I5
tp3979
I0
tp3980
a((I0
I1
I2
I3
tp3981
I1
tp3982
a((I0
I1
I2
I3
tp3983
I1
tp3984
a((I0
I1
I2
I3
I4
I5
tp3985
I0
tp3986
a((I0
I1
I2
I3
tp3987
I3
tp3988
a((I0
I1
I2
I3
tp3989
I3
tp3990
a((I0
I1
I2
I3
I4
tp3991
I0
tp3992
a((I0
I1
I2
I3
I4
tp3993
I0
tp3994
a((I0
I1
I2
I3
tp3995
I0
tp3996
a((I0
I1
I2
I3
tp3997
I0
tp3998
a((I0
I1
I2
I3
I4
I5
tp3999
I0
tp4000
a((I0
I1
I2
I3
I4
I5
tp4001
I0
tp4002
a((I0
I1
I2
I4
tp4003
I0
tp4004
a((I0
I1
I2
I3
I4
I5
tp4005
I0
tp4006
a((I0
I1
I2
I3
I4
I5
tp4007
I0
tp4008
a((I0
I1
I2
I3
tp4009
I0
tp4010
a((I0
I1
I2
I3
tp4011
I3
tp4012
a((I0
I1
I2
I3
tp4013
I0
tp4014
a((I0
I1
I2
I3
tp4015
I0
tp4016
a((I0
I1
I2
I3
tp4017
I0
tp4018
a((I0
I1
I2
I3
tp4019
I0
tp4020
a((I0
I1
I2
I3
tp4021
I0
tp4022
a((I0
I1
I2
I3
I5
tp4023
I1
tp4024
a((I0
I1
I2
I3
tp4025
I0
tp4026
a((I0
I1
I2
I3
I4
tp4027
I0
tp4028
a((I0
I1
I2
I3
I4
I5
tp4029
I0
tp4030
a((I0
I1
I2
tp4031
I0
tp4032
a((I0
I1
I2
I3
I4
I5
tp4033
I0
tp4034
a((I0
I1
I2
I3
I4
tp4035
I0
tp4036
a((I0
I1
I2
I3
I4
I5
tp4037
I0
tp4038
a((I0
I1
I2
tp4039
I0
tp4040
a((I0
I1
I2
tp4041
I0
tp4042
a((I0
I1
I2
tp4043
I2
tp4044
a((I0
I1
I2
tp4045
I2
tp4046
a((I0
I1
I2
tp4047
I0
tp4048
a((I0
I1
I2
I3
I4
tp4049
I0
tp4050
a((I0
I1
I2
I3
I4
I5
tp4051
I0
tp4052
a((I0
I1
I2
I3
I4
tp4053
I0
tp4054
a((I0
I1
I2
tp4055
I0
tp4056
a((I0
I1
I2
I3
I4
I5
tp4057
I0
tp4058
a((I0
I1
I2
I3
I4
I5
tp4059
I1
tp4060
a((I0
I1
I2
I3
I5
tp4061
I0
tp4062
a((I0
I1
I2
tp4063
I0
tp4064
a((I0
I1
I2
I3
I4
I5
tp4065
I1
tp4066
a((I0
I1
I2
I3
I4
I5
tp4067
I1
tp4068
a((I0
I1
I2
I4
tp4069
I1
tp4070
a((I0
I1
I2
tp4071
I0
tp4072
a((I0
I1
I2
tp4073
I0
tp4074
a((I0
I1
I2
I4
I5
tp4075
I0
tp4076
a((I0
I1
I2
tp4077
I0
tp4078
a((I0
I1
I2
I3
I4
I5
tp4079
I0
tp4080
a((I0
I1
I2
I3
I5
tp4081
I0
tp4082
a((I0
I1
I2
I4
tp4083
I0
tp4084
a((I0
I1
I2
I3
I4
I5
tp4085
I0
tp4086
a((I0
I1
I2
I3
I4
I5
tp4087
I0
tp4088
a((I0
I1
I2
tp4089
I0
tp4090
a((I0
I1
I2
tp4091
I0
tp4092
a((I0
I1
I2
I3
I4
I5
tp4093
I0
tp4094
a((I0
I1
I2
I3
I4
I5
tp4095
I0
tp4096
a((I0
I1
I2
I4
tp4097
I0
tp4098
a((I0
I1
I2
tp4099
I2
tp4100
a((I0
I1
I2
I4
tp4101
I0
tp4102
a((I0
I1
I2
tp4103
I0
tp4104
a((I0
I1
I2
I3
I4
I5
tp4105
I0
tp4106
a((I1
I2
I3
I4
I5
tp4107
I0
tp4108
a((I0
I1
I2
tp4109
I1
tp4110
a((I0
I1
I2
I3
I4
I5
tp4111
I0
tp4112
a((I0
I1
I2
tp4113
I0
tp4114
a((I0
I1
I2
I3
I5
tp4115
I0
tp4116
a((I0
I1
I2
I3
I4
I5
tp4117
I0
tp4118
a((I0
I1
I2
I3
I4
tp4119
I0
tp4120
a((I1
I2
I3
I5
tp4121
I1
tp4122
a((I0
I1
I2
tp4123
I0
tp4124
a((I0
I1
I2
tp4125
I0
tp4126
a((I0
I1
I2
tp4127
I0
tp4128
a((I0
I1
I2
I3
tp4129
I0
tp4130
a((I0
I1
I2
tp4131
I0
tp4132
a((I0
I1
I2
I3
I5
tp4133
I0
tp4134
a((I0
I1
I2
tp4135
I0
tp4136
a((I0
I1
I2
I3
I4
I5
tp4137
I0
tp4138
a((I0
I1
I2
I3
I5
tp4139
I0
tp4140
a((I0
I1
I2
I3
I5
tp4141
I0
tp4142
a((I0
I1
I2
I4
tp4143
I0
tp4144
a((I0
I1
I2
I4
tp4145
I0
tp4146
a((I0
I1
I2
I3
I5
tp4147
I2
tp4148
a((I0
I1
I2
tp4149
I0
tp4150
a((I0
I1
I2
I3
I4
I5
tp4151
I0
tp4152
a((I0
I1
I2
I4
tp4153
I0
tp4154
a((I0
I1
I2
I3
I4
I5
tp4155
I5
tp4156
a((I0
I1
I2
I3
I4
I5
tp4157
I5
tp4158
a((I0
I1
I2
I3
I5
tp4159
I0
tp4160
a((I0
I1
I2
tp4161
I0
tp4162
a((I0
I1
I2
I3
I4
I5
tp4163
I0
tp4164
a((I0
I1
I2
tp4165
I0
tp4166
a((I0
I1
I2
I3
I5
tp4167
I0
tp4168
a((I0
I1
I2
tp4169
I0
tp4170
a((I0
I1
I2
I3
tp4171
I0
tp4172
a((I0
I1
I2
I3
I4
tp4173
I2
tp4174
a((I0
I1
I2
tp4175
I0
tp4176
a((I0
I1
I2
tp4177
I0
tp4178
a((I0
I1
I2
tp4179
I0
tp4180
a((I0
I1
I2
I3
I5
tp4181
I0
tp4182
a((I0
I1
I2
tp4183
I0
tp4184
a((I0
I1
I2
tp4185
I0
tp4186
a((I0
I1
I2
I4
tp4187
I0
tp4188
a((I0
I1
I2
tp4189
I0
tp4190
a((I0
I1
I2
tp4191
I1
tp4192
a((I0
I1
I2
I3
I5
tp4193
I2
tp4194
a((I0
I1
I2
I3
I5
tp4195
I1
tp4196
a((I0
I1
I2
tp4197
I0
tp4198
a((I0
I1
I2
I3
I5
tp4199
I0
tp4200
a((I0
I1
I2
tp4201
I0
tp4202
a((I0
I1
I2
I3
I4
I5
tp4203
I0
tp4204
a((I0
I1
I2
I3
I4
I5
tp4205
I0
tp4206
a((I0
I1
I2
tp4207
I0
tp4208
a((I0
I1
I2
tp4209
I0
tp4210
a((I0
I1
I2
tp4211
I0
tp4212
a((I0
I1
I2
tp4213
I0
tp4214
a((I0
I1
I2
I3
I4
I5
tp4215
I0
tp4216
a((I0
I1
I2
I3
I5
tp4217
I0
tp4218
a((I0
I1
I2
I3
I5
tp4219
I0
tp4220
a((I1
I2
I3
I4
I5
tp4221
I4
tp4222
a((I0
I1
I2
I4
tp4223
I0
tp4224
a((I0
I1
I2
I3
I4
I5
tp4225
I0
tp4226
a((I0
I1
I2
I3
tp4227
I1
tp4228
a((I1
I2
I3
tp4229
I2
tp4230
a((I1
I2
I3
tp4231
I2
tp4232
a((I0
I1
I2
tp4233
I0
tp4234
a((I0
I1
I2
I3
I4
I5
tp4235
I0
tp4236
a((I0
I1
I2
I3
I4
I5
tp4237
I0
tp4238
a((I0
I1
I2
tp4239
I0
tp4240
a((I0
I1
I2
I4
tp4241
I0
tp4242
a((I0
I1
I2
I3
I5
tp4243
I0
tp4244
a((I0
I1
I2
tp4245
I0
tp4246
a((I0
I1
I2
I3
I5
tp4247
I0
tp4248
a((I0
I1
I2
I3
I4
I5
tp4249
I0
tp4250
a((I0
I1
I2
tp4251
I0
tp4252
a((I0
I1
I2
tp4253
I0
tp4254
a((I0
I1
I2
I4
tp4255
I0
tp4256
a((I0
I1
I2
I3
I5
tp4257
I0
tp4258
a((I0
I1
I2
tp4259
I0
tp4260
a((I0
I1
I2
tp4261
I0
tp4262
a((I0
I1
I2
I3
tp4263
I0
tp4264
a((I0
I1
I2
I3
I4
I5
tp4265
I0
tp4266
a((I0
I1
I2
tp4267
I0
tp4268
a((I0
I1
I2
I5
tp4269
I3
tp4270
a((I0
I1
I2
I5
tp4271
I0
tp4272
a((I0
I1
I2
I5
tp4273
I0
tp4274
a((I0
I1
I2
I3
I5
tp4275
I0
tp4276
a((I0
I1
I2
tp4277
I0
tp4278
a((I0
I1
I2
I3
I4
I5
tp4279
I0
tp4280
a((I0
I1
I2
I3
I4
I5
tp4281
I0
tp4282
a((I0
I1
I2
I3
I4
I5
tp4283
I0
tp4284
a((I0
I1
I2
tp4285
I0
tp4286
a((I0
I1
I2
I3
I4
I5
tp4287
I0
tp4288
a((I0
I1
I2
tp4289
I1
tp4290
a((I0
I1
I2
tp4291
I0
tp4292
a((I0
I1
I2
I3
I4
I5
tp4293
I0
tp4294
a((I0
I1
I2
I3
I4
I5
tp4295
I0
tp4296
a((I0
I1
I2
tp4297
I0
tp4298
a((I0
I1
I2
tp4299
I0
tp4300
a((I0
I1
I2
I4
tp4301
I0
tp4302
a((I0
I1
I2
I4
tp4303
I0
tp4304
a((I0
I1
I2
tp4305
I0
tp4306
a((I0
I1
I2
I3
I4
I5
tp4307
I0
tp4308
a((I0
I1
I2
tp4309
I0
tp4310
a((I0
I1
I2
I4
tp4311
I0
tp4312
a((I0
I1
I2
I3
I5
tp4313
I0
tp4314
a((I0
I1
I2
I4
I5
tp4315
I0
tp4316
a((I0
I1
I2
I4
tp4317
I0
tp4318
a((I0
I1
I2
tp4319
I0
tp4320
a((I0
I1
I2
tp4321
I0
tp4322
a((I0
I1
I2
I5
tp4323
I1
tp4324
a((I0
I1
I2
I4
I5
tp4325
I0
tp4326
a((I0
I1
I2
tp4327
I0
tp4328
a((I0
I1
I2
I5
tp4329
I0
tp4330
a((I0
I1
I2
I5
tp4331
I0
tp4332
a((I0
I1
I2
tp4333
I0
tp4334
a((I0
I1
I2
I4
I5
tp4335
I0
tp4336
a((I0
I1
I2
I5
tp4337
I0
tp4338
a((I0
I1
I2
I4
I5
tp4339
I4
tp4340
a((I0
I1
I2
tp4341
I0
tp4342
a((I0
I1
I2
I5
tp4343
I0
tp4344
a((I0
I1
I2
I5
tp4345
I3
tp4346
a((I0
I1
I2
tp4347
I0
tp4348
a((I0
I1
I2
tp4349
I1
tp4350
a((I0
I1
I2
tp4351
I0
tp4352
a((I0
I1
I2
I4
I5
tp4353
I1
tp4354
a((I0
I1
I2
I4
I5
tp4355
I1
tp4356
a((I0
I1
I2
I3
I4
I5
tp4357
I0
tp4358
a((I0
I1
I2
I4
tp4359
I0
tp4360
a((I0
I1
I2
tp4361
I0
tp4362
a((I0
I1
I2
I3
I5
tp4363
I0
tp4364
a((I0
I1
I2
tp4365
I0
tp4366
a((I0
I1
I2
tp4367
I1
tp4368
a((I0
I1
I2
I4
I5
tp4369
I1
tp4370
a((I0
I1
I2
I4
I5
tp4371
I1
tp4372
a((I0
I1
I2
tp4373
I0
tp4374
a((I0
I1
I2
tp4375
I0
tp4376
a((I0
I1
I2
tp4377
I0
tp4378
a((I0
I1
I2
I3
I5
tp4379
I0
tp4380
a((I0
I1
I2
I4
tp4381
I0
tp4382
a((I0
I1
I2
I3
I5
tp4383
I4
tp4384
a((I0
I1
I2
tp4385
I0
tp4386
a((I0
I1
I2
tp4387
I0
tp4388
a((I0
I1
I2
I4
I5
tp4389
I0
tp4390
a((I0
I1
I2
tp4391
I0
tp4392
a((I0
I1
I2
I4
tp4393
I0
tp4394
a((I0
I1
I2
tp4395
I0
tp4396
a((I0
I1
I2
I4
I5
tp4397
I0
tp4398
a((I0
I1
I2
I4
I5
tp4399
I0
tp4400
a((I0
I1
I2
I4
I5
tp4401
I0
tp4402
a((I0
I1
I2
I4
I5
tp4403
I1
tp4404
a((I0
I1
I2
tp4405
I0
tp4406
a((I0
I1
I2
I5
tp4407
I0
tp4408
a((I0
I1
I2
I5
tp4409
I0
tp4410
a((I0
I1
I2
I4
I5
tp4411
I0
tp4412
a((I0
I1
I2
tp4413
I1
tp4414
a((I0
I1
I2
tp4415
I1
tp4416
a((I0
I1
I2
I5
tp4417
I3
tp4418
a((I0
I1
I2
I4
I5
tp4419
I0
tp4420
a((I0
I1
I2
I5
tp4421
I0
tp4422
a((I0
I1
I2
I3
I4
I5
tp4423
I0
tp4424
a((I0
I1
I2
I4
I5
tp4425
I0
tp4426
a((I0
I1
I2
I4
I5
tp4427
I0
tp4428
a((I0
I1
I2
tp4429
I1
tp4430
a((I0
I1
I2
I5
tp4431
I0
tp4432
a((I0
I1
I2
I4
I5
tp4433
I0
tp4434
a((I0
I1
I2
I5
tp4435
I0
tp4436
a((I0
I1
I2
I4
tp4437
I0
tp4438
a((I0
I1
I2
I4
I5
tp4439
I0
tp4440
a((I0
I1
I2
I4
I5
tp4441
I0
tp4442
a((I0
I1
I2
tp4443
I0
tp4444
a((I0
I1
I2
I3
I4
I5
tp4445
I0
tp4446
a((I0
I1
I2
I5
tp4447
I0
tp4448
a((I0
I1
I2
I4
I5
tp4449
I0
tp4450
a((I0
I1
I2
I4
tp4451
I0
tp4452
a((I0
I1
I2
tp4453
I0
tp4454
a((I0
I1
I2
I3
I4
I5
tp4455
I0
tp4456
a((I0
I1
I2
I3
I4
tp4457
I0
tp4458
a((I0
I1
I2
I3
I4
I5
tp4459
I0
tp4460
a((I0
I1
I2
I3
I4
I5
tp4461
I0
tp4462
a((I0
I1
I2
tp4463
I1
tp4464
a((I0
I1
I2
tp4465
I1
tp4466
a((I0
I1
I2
I4
tp4467
I0
tp4468
a((I0
I1
I2
tp4469
I0
tp4470
a((I0
I1
I2
I4
I5
tp4471
I0
tp4472
a((I0
I1
I2
tp4473
I0
tp4474
a((I0
I1
I2
I3
tp4475
I3
tp4476
a((I0
I1
I2
I3
I4
tp4477
I3
tp4478
a((I1
I2
I3
I5
tp4479
I2
tp4480
a((I1
I2
I3
I4
I5
tp4481
I4
tp4482
a((I0
I1
I2
I3
tp4483
I0
tp4484
a((I1
I2
I3
I5
tp4485
I3
tp4486
a((I0
I1
I2
I3
tp4487
I3
tp4488
a((I0
I1
I2
I3
tp4489
I0
tp4490
a((I0
I1
I2
I3
I4
tp4491
I1
tp4492
a((I0
I1
I2
I3
I4
tp4493
I1
tp4494
a((I0
I1
I2
I3
I5
tp4495
I3
tp4496
a((I1
I2
I3
I5
tp4497
I0
tp4498
a((I0
I1
I2
I3
tp4499
I3
tp4500
a((I0
I1
I2
I3
I4
tp4501
I3
tp4502
a((I0
I1
I2
I3
I4
I5
tp4503
I3
tp4504
a((I0
I1
I2
I3
I5
tp4505
I3
tp4506
a((I0
I1
I2
I3
tp4507
I1
tp4508
a((I0
I1
I2
I3
tp4509
I1
tp4510
a((I0
I1
I2
I3
tp4511
I0
tp4512
a((I0
I1
I2
I3
tp4513
I0
tp4514
a((I0
I1
I2
I3
I4
I5
tp4515
I5
tp4516
a((I0
I1
I2
I3
tp4517
I0
tp4518
a((I0
I1
I2
I3
I5
tp4519
I3
tp4520
a((I0
I1
I2
I3
I5
tp4521
I0
tp4522
a((I0
I1
I2
tp4523
I0
tp4524
a((I1
I2
I3
tp4525
I0
tp4526
a((I0
I1
I2
I3
tp4527
I0
tp4528
a((I0
I1
I2
I3
I4
I5
tp4529
I0
tp4530
a((I0
I1
I2
I3
I4
I5
tp4531
I2
tp4532
a((I0
I1
I2
I3
tp4533
I0
tp4534
a((I0
I1
I2
tp4535
I0
tp4536
a((I0
I1
I2
I3
tp4537
I0
tp4538
a((I1
I2
I3
I5
tp4539
I0
tp4540
a((I0
I1
I2
I3
I5
tp4541
I0
tp4542
a((I0
I1
I2
I3
tp4543
I3
tp4544
a((I0
I1
I2
I3
I5
tp4545
I0
tp4546
a((I1
I2
I3
I5
tp4547
I2
tp4548
a((I0
I1
I2
I3
tp4549
I0
tp4550
a((I0
I1
I2
I3
I4
I5
tp4551
I5
tp4552
a((I1
I2
I3
I5
tp4553
I2
tp4554
a((I1
I2
I3
I5
tp4555
I2
tp4556
a((I0
I1
I2
I3
I5
tp4557
I0
tp4558
a((I0
I1
I2
I3
tp4559
I0
tp4560
a((I0
I1
I2
I3
I5
tp4561
I0
tp4562
a((I0
I1
I2
tp4563
I0
tp4564
a((I0
I1
I2
I3
I4
I5
tp4565
I0
tp4566
a((I0
I1
I2
I3
I5
tp4567
I3
tp4568
a((I0
I1
I2
I3
I5
tp4569
I0
tp4570
a((I1
I2
I3
I5
tp4571
I3
tp4572
a((I1
I2
I3
I4
I5
tp4573
I4
tp4574
a((I1
I2
I3
tp4575
I2
tp4576
a((I1
I2
I3
I5
tp4577
I2
tp4578
a((I0
I1
I2
I3
I5
tp4579
I4
tp4580
a((I0
I1
I2
I3
tp4581
I0
tp4582
a((I0
I1
I2
I3
tp4583
I3
tp4584
a((I0
I1
I2
I3
I5
tp4585
I0
tp4586
a((I0
I1
I2
I3
tp4587
I0
tp4588
a((I1
I2
I3
tp4589
I0
tp4590
a((I0
I1
I2
I3
tp4591
I0
tp4592
a((I0
I1
I2
I3
I5
tp4593
I2
tp4594
a((I0
I1
I2
I3
I4
tp4595
I3
tp4596
a((I0
I1
I2
I3
I4
tp4597
I3
tp4598
a((I1
I2
I3
tp4599
I2
tp4600
a((I0
I1
I2
I3
tp4601
I3
tp4602
a((I0
I1
I2
tp4603
I0
tp4604
a((I0
I1
I2
I3
I4
tp4605
I0
tp4606
a((I0
I1
I2
I3
I4
tp4607
I0
tp4608
a((I0
I1
I2
I3
I4
I5
tp4609
I1
tp4610
a((I1
I2
I3
I5
tp4611
I2
tp4612
a((I0
I1
I2
I3
tp4613
I2
tp4614
a((I0
I1
I2
I3
tp4615
I0
tp4616
a((I0
I1
I2
I3
tp4617
I3
tp4618
a((I0
I1
I2
I3
tp4619
I0
tp4620
a((I0
I1
I2
I3
I4
I5
tp4621
I0
tp4622
a((I0
I1
I2
I3
I4
tp4623
I0
tp4624
a((I0
I1
I2
I3
I4
tp4625
I1
tp4626
a((I0
I1
I2
I3
I4
I5
tp4627
I0
tp4628
a((I0
I1
I2
I3
tp4629
I0
tp4630
a((I0
I1
I2
I3
I5
tp4631
I1
tp4632
a((I1
I2
I3
I4
tp4633
I0
tp4634
a((I0
I1
I2
I3
tp4635
I0
tp4636
a((I0
I1
I2
I3
I4
tp4637
I0
tp4638
a((I1
I2
I3
I4
tp4639
I2
tp4640
a((I0
I1
I2
I3
tp4641
I0
tp4642
a((I0
I1
I2
I3
tp4643
I0
tp4644
a((I0
I1
I2
I3
tp4645
I0
tp4646
a((I1
I2
I3
I4
I5
tp4647
I4
tp4648
a((I0
I1
I2
I3
I5
tp4649
I1
tp4650
a((I0
I1
I2
tp4651
I0
tp4652
a((I0
I1
I2
I3
I5
tp4653
I0
tp4654
a((I0
I1
I2
I3
I4
I5
tp4655
I0
tp4656
a((I0
I1
I2
tp4657
I0
tp4658
a((I0
I1
I2
I3
I5
tp4659
I0
tp4660
a((I1
I2
I3
I5
tp4661
I2
tp4662
a((I1
I2
I3
tp4663
I2
tp4664
a((I0
I1
I2
I3
tp4665
I0
tp4666
a((I0
I1
I2
I3
I5
tp4667
I0
tp4668
a((I0
I1
I2
I3
I4
I5
tp4669
I0
tp4670
a((I0
I1
I2
I3
I5
tp4671
I0
tp4672
a((I0
I1
I2
I3
I5
tp4673
I1
tp4674
a((I1
I2
I3
tp4675
I2
tp4676
a((I0
I1
I2
I3
I4
tp4677
I0
tp4678
a((I0
I1
I2
I3
I4
tp4679
I0
tp4680
a((I0
I1
I2
I3
tp4681
I0
tp4682
a((I0
I1
I2
I3
I5
tp4683
I0
tp4684
a((I0
I1
I2
I3
tp4685
I0
tp4686
a((I0
I1
I2
I3
tp4687
I3
tp4688
a((I1
I2
I3
I4
tp4689
I2
tp4690
a((I0
I1
I2
I3
I4
tp4691
I3
tp4692
a((I0
I1
I2
I3
I4
tp4693
I0
tp4694
a((I0
I1
I2
I3
tp4695
I3
tp4696
a((I0
I1
I2
I3
tp4697
I3
tp4698
a((I1
I2
I3
tp4699
I2
tp4700
a((I1
I2
I3
I5
tp4701
I3
tp4702
a((I0
I1
I2
I3
tp4703
I3
tp4704
a((I1
I2
I3
tp4705
I2
tp4706
a((I0
I1
I2
I3
I4
I5
tp4707
I4
tp4708
a((I0
I1
I2
I3
I4
I5
tp4709
I4
tp4710
a((I0
I1
I2
I3
tp4711
I0
tp4712
a((I0
I1
I2
I3
I5
tp4713
I0
tp4714
a((I0
I1
I2
I3
tp4715
I0
tp4716
a((I0
I1
I2
I3
I4
I5
tp4717
I3
tp4718
a((I0
I1
I2
I3
I4
tp4719
I0
tp4720
a((I0
I1
I2
I3
tp4721
I3
tp4722
a((I0
I1
I2
I3
I4
I5
tp4723
I3
tp4724
a((I0
I1
I2
I3
I4
tp4725
I3
tp4726
a((I1
I2
I3
tp4727
I2
tp4728
a((I0
I1
I2
I3
tp4729
I3
tp4730
a((I1
I2
I3
I4
I5
tp4731
I4
tp4732
a((I0
I1
I2
tp4733
I0
tp4734
a((I1
I2
I3
I5
tp4735
I3
tp4736
a((I1
I2
I3
I5
tp4737
I2
tp4738
a((I0
I1
I2
I3
tp4739
I3
tp4740
a((I0
I1
I2
I3
tp4741
I0
tp4742
a((I0
I1
I2
I3
I5
tp4743
I3
tp4744
a((I0
I1
I2
I3
tp4745
I0
tp4746
a((I0
I1
I2
I3
I4
I5
tp4747
I3
tp4748
a((I1
I2
I3
I5
tp4749
I3
tp4750
a((I1
I2
I3
I5
tp4751
I3
tp4752
a((I1
I2
I3
I5
tp4753
I3
tp4754
a((I1
I2
I3
I5
tp4755
I0
tp4756
a((I1
I2
I3
I5
tp4757
I3
tp4758
a((I0
I1
I2
I3
I4
I5
tp4759
I0
tp4760
a((I0
I1
I2
I3
I5
tp4761
I0
tp4762
a((I0
I1
I2
I3
I5
tp4763
I0
tp4764
a((I1
I2
I3
tp4765
I2
tp4766
a((I1
I2
I3
tp4767
I0
tp4768
a((I1
I2
I3
tp4769
I2
tp4770
a((I0
I1
I2
I3
I4
tp4771
I1
tp4772
a((I0
I1
I2
I3
I4
I5
tp4773
I1
tp4774
a((I0
I1
I2
I3
tp4775
I1
tp4776
a((I0
I1
I2
I3
I4
tp4777
I0
tp4778
a((I0
I1
I2
I3
tp4779
I0
tp4780
a((I0
I1
I2
I3
tp4781
I3
tp4782
a((I0
I1
I2
I3
tp4783
I0
tp4784
a((I0
I1
I2
I3
tp4785
I0
tp4786
a((I0
I1
I2
I3
tp4787
I0
tp4788
a((I0
I1
I2
I3
tp4789
I0
tp4790
a((I0
I1
I2
I3
tp4791
I0
tp4792
a((I0
I1
I2
I3
tp4793
I0
tp4794
a((I0
I1
I2
I3
tp4795
I0
tp4796
a((I0
I1
I2
I3
tp4797
I0
tp4798
a((I0
I1
I2
I3
tp4799
I0
tp4800
a((I0
I1
I2
I3
I4
tp4801
I3
tp4802
a((I0
I1
I2
I3
I5
tp4803
I0
tp4804
a((I0
I1
I2
I3
I4
tp4805
I0
tp4806
a((I0
I1
I2
I3
I5
tp4807
I0
tp4808
a((I0
I1
I2
I3
tp4809
I0
tp4810
a((I1
I2
I3
I5
tp4811
I3
tp4812
a((I0
I1
I2
I3
I5
tp4813
I3
tp4814
a((I1
I2
I3
I4
I5
tp4815
I3
tp4816
a((I0
I1
I2
I3
I4
I5
tp4817
I3
tp4818
a((I0
I1
I2
I3
tp4819
I0
tp4820
a((I1
I2
I3
tp4821
I0
tp4822
a((I0
I1
I2
I3
tp4823
I0
tp4824
a((I0
I1
I2
I3
I4
tp4825
I0
tp4826
a((I1
I2
I3
I5
tp4827
I2
tp4828
a((I0
I1
I2
I3
I4
tp4829
I0
tp4830
a((I1
I2
I3
I5
tp4831
I2
tp4832
a((I0
I1
I2
I3
I5
tp4833
I3
tp4834
a((I1
I2
I3
tp4835
I1
tp4836
a((I0
I1
I2
I3
I5
tp4837
I2
tp4838
a((I0
I1
I2
I3
I5
tp4839
I3
tp4840
a((I0
I1
I2
I3
I5
tp4841
I3
tp4842
a((I1
I2
I3
I5
tp4843
I2
tp4844
a((I1
I2
I3
I5
tp4845
I3
tp4846
a((I0
I1
I2
I3
I5
tp4847
I0
tp4848
a((I0
I1
I2
I3
I5
tp4849
I3
tp4850
a((I1
I2
I3
I5
tp4851
I2
tp4852
a((I0
I1
I2
I3
tp4853
I3
tp4854
a((I1
I2
I3
I5
tp4855
I2
tp4856
a((I0
I1
I2
I3
tp4857
I3
tp4858
a((I0
I1
I2
I3
I4
I5
tp4859
I0
tp4860
a((I0
I1
I2
I3
tp4861
I0
tp4862
a((I0
I1
I2
I3
tp4863
I0
tp4864
a((I0
I1
I2
I3
I4
tp4865
I3
tp4866
a((I0
I1
I2
I3
tp4867
I0
tp4868
a((I0
I1
I2
I3
I4
I5
tp4869
I0
tp4870
a((I0
I1
I2
tp4871
I0
tp4872
a((I0
I1
I2
I3
I4
I5
tp4873
I3
tp4874
a((I0
I1
I2
I3
I4
I5
tp4875
I3
tp4876
a((I0
I1
I2
I3
tp4877
I0
tp4878
a((I1
I2
I3
I5
tp4879
I3
tp4880
a((I0
I1
I2
I3
I4
I5
tp4881
I0
tp4882
a((I0
I1
I2
I3
I4
tp4883
I0
tp4884
a((I0
I1
I2
I3
I4
I5
tp4885
I0
tp4886
a((I0
I1
I2
I3
tp4887
I0
tp4888
a((I0
I1
I2
tp4889
I0
tp4890
a((I0
I1
I2
I3
I4
I5
tp4891
I0
tp4892
a((I1
I2
I3
tp4893
I2
tp4894
a((I0
I1
I2
I3
I4
tp4895
I1
tp4896
a((I0
I1
I2
I3
tp4897
I3
tp4898
a((I0
I1
I2
I3
I5
tp4899
I0
tp4900
a((I0
I1
I2
I3
I4
tp4901
I3
tp4902
a((I0
I1
I2
I3
I4
tp4903
I2
tp4904
a((I1
I2
I3
tp4905
I0
tp4906
a((I0
I1
I2
I3
I5
tp4907
I0
tp4908
a((I0
I1
I2
I3
I5
tp4909
I0
tp4910
a((I1
I2
I3
I4
I5
tp4911
I2
tp4912
a((I0
I1
I2
I3
tp4913
I3
tp4914
a((I0
I1
I2
I3
I4
I5
tp4915
I5
tp4916
a((I0
I1
I2
I3
I5
tp4917
I1
tp4918
a((I0
I1
I2
tp4919
I0
tp4920
a((I0
I1
I2
tp4921
I0
tp4922
a((I0
I1
I2
I3
I4
I5
tp4923
I3
tp4924
a((I0
I1
I2
I3
I4
I5
tp4925
I0
tp4926
a((I1
I2
I3
tp4927
I2
tp4928
a((I0
I1
I2
I3
I4
tp4929
I0
tp4930
a((I0
I1
I2
I3
I4
tp4931
I3
tp4932
a((I0
I1
I2
I3
I4
I5
tp4933
I1
tp4934
a((I1
I2
I3
tp4935
I2
tp4936
a((I1
I2
I3
tp4937
I2
tp4938
a((I0
I1
I2
I3
tp4939
I0
tp4940
a((I0
I1
I2
I3
tp4941
I0
tp4942
a((I0
I1
I2
I3
tp4943
I0
tp4944
a((I1
I2
I3
tp4945
I2
tp4946
a((I0
I1
I2
tp4947
I0
tp4948
a((I0
I1
I2
I3
tp4949
I0
tp4950
a((I0
I1
I2
I3
I5
tp4951
I0
tp4952
a((I0
I1
I2
I3
I4
tp4953
I3
tp4954
a((I0
I1
I2
I3
tp4955
I3
tp4956
a((I0
I1
I2
I3
tp4957
I3
tp4958
a((I0
I1
I2
I3
tp4959
I0
tp4960
a((I0
I1
I2
I3
I5
tp4961
I0
tp4962
a((I0
I1
I2
I3
tp4963
I3
tp4964
a((I0
I1
I2
I3
tp4965
I0
tp4966
a((I1
I2
I3
I5
tp4967
I2
tp4968
a((I0
I1
I2
I3
tp4969
I2
tp4970
a((I1
I2
I3
tp4971
I2
tp4972
a((I0
I1
I2
I3
tp4973
I3
tp4974
a((I0
I1
I2
I3
I4
tp4975
I0
tp4976
a((I0
I1
I2
I3
tp4977
I1
tp4978
a((I0
I1
I2
I3
I5
tp4979
I0
tp4980
a((I0
I1
I2
I3
tp4981
I0
tp4982
a((I0
I1
I2
I3
I5
tp4983
I3
tp4984
a((I0
I1
I2
I3
tp4985
I3
tp4986
a((I0
I1
I2
I3
tp4987
I1
tp4988
a((I0
I1
I2
I3
tp4989
I0
tp4990
a((I0
I1
I2
I3
I5
tp4991
I4
tp4992
a((I1
I2
I3
I5
tp4993
I2
tp4994
a((I0
I1
I2
I3
I4
I5
tp4995
I0
tp4996
a((I0
I1
I2
I3
I4
tp4997
I0
tp4998
a((I0
I1
I2
I3
I4
tp4999
I0
tp5000
a((I1
I2
I3
tp5001
I2
tp5002
a((I0
I1
I2
I3
tp5003
I0
tp5004
a((I0
I1
I2
I3
I5
tp5005
I0
tp5006
a((I0
I1
I2
I3
tp5007
I3
tp5008
a((I0
I1
I2
I3
tp5009
I3
tp5010
a((I1
I2
I3
tp5011
I1
tp5012
a((I0
I1
I2
I3
tp5013
I2
tp5014
a((I0
I1
I2
I3
tp5015
I2
tp5016
a((I1
I2
I3
tp5017
I2
tp5018
a((I0
I1
I2
I3
I5
tp5019
I4
tp5020
a((I0
I1
I2
I3
I5
tp5021
I3
tp5022
a((I0
I1
I2
I3
I5
tp5023
I3
tp5024
a((I0
I1
I2
I3
I5
tp5025
I3
tp5026
a((I1
I2
I3
I4
I5
tp5027
I2
tp5028
a((I1
I2
I3
I4
I5
tp5029
I2
tp5030
a((I1
I2
I3
I5
tp5031
I3
tp5032
a((I0
I1
I2
I3
I5
tp5033
I0
tp5034
a((I0
I1
I2
I3
tp5035
I3
tp5036
a((I0
I1
I2
I3
I4
I5
tp5037
I5
tp5038
a((I0
I1
I2
I3
I4
I5
tp5039
I3
tp5040
a((I0
I1
I2
I3
I4
tp5041
I0
tp5042
a((I0
I1
I2
I3
I4
tp5043
I0
tp5044
a((I0
I1
I2
I3
I4
I5
tp5045
I5
tp5046
a((I0
I1
I2
I3
I5
tp5047
I3
tp5048
a((I0
I1
I2
I3
I4
I5
tp5049
I4
tp5050
a((I0
I1
I2
I3
I5
tp5051
I3
tp5052
a((I0
I1
I2
I3
I5
tp5053
I3
tp5054
a((I0
I1
I2
I3
tp5055
I0
tp5056
a((I0
I1
I2
I3
I4
I5
tp5057
I3
tp5058
a((I0
I1
I2
I3
I4
tp5059
I1
tp5060
a((I0
I1
I2
I3
tp5061
I3
tp5062
a((I0
I1
I2
I3
tp5063
I0
tp5064
a((I0
I1
I2
I3
I5
tp5065
I3
tp5066
a((I1
I2
I3
I5
tp5067
I2
tp5068
a((I0
I1
I2
I3
tp5069
I0
tp5070
a((I0
I1
I2
I3
I5
tp5071
I0
tp5072
a((I1
I2
I3
I4
tp5073
I2
tp5074
a((I0
I1
I2
tp5075
I0
tp5076
a((I0
I1
I2
I3
tp5077
I3
tp5078
a((I0
I1
I2
I3
I4
tp5079
I3
tp5080
a((I1
I2
I3
tp5081
I2
tp5082
a((I1
I2
I3
I5
tp5083
I2
tp5084
a((I0
I1
I2
I3
I4
tp5085
I0
tp5086
a((I1
I2
I3
I5
tp5087
I2
tp5088
a((I0
I1
I2
I3
I4
I5
tp5089
I0
tp5090
a((I0
I1
I2
I3
I5
tp5091
I4
tp5092
a((I0
I1
I2
I3
I4
I5
tp5093
I3
tp5094
a((I0
I1
I2
I3
I5
tp5095
I0
tp5096
a((I0
I1
I2
I3
I5
tp5097
I0
tp5098
a((I0
I1
I2
I3
I4
tp5099
I3
tp5100
a((I0
I1
I2
I3
I4
I5
tp5101
I0
tp5102
a((I1
I2
I3
I5
tp5103
I3
tp5104
a((I1
I2
I3
I5
tp5105
I0
tp5106
a((I1
I2
I3
tp5107
I0
tp5108
a((I0
I1
I2
I3
I5
tp5109
I3
tp5110
a((I0
I1
I2
I3
I5
tp5111
I0
tp5112
a((I0
I1
I2
I3
I5
tp5113
I3
tp5114
a((I0
I1
I2
I3
I4
I5
tp5115
I4
tp5116
a((I0
I1
I2
I3
tp5117
I0
tp5118
a((I0
I1
I2
I3
I5
tp5119
I4
tp5120
a((I1
I2
I3
tp5121
I0
tp5122
a((I0
I1
I2
I3
I5
tp5123
I1
tp5124
a((I0
I1
I2
I3
I5
tp5125
I0
tp5126
a((I0
I1
I2
I3
I5
tp5127
I0
tp5128
a((I0
I1
I2
I3
I5
tp5129
I3
tp5130
a((I0
I1
I2
I3
I5
tp5131
I0
tp5132
a((I0
I1
I2
I3
I4
I5
tp5133
I0
tp5134
a((I0
I1
I2
I3
tp5135
I0
tp5136
a((I0
I1
I2
I3
tp5137
I0
tp5138
a((I1
I2
I3
I5
tp5139
I2
tp5140
a((I0
I1
I2
I3
tp5141
I2
tp5142
a((I1
I2
I3
tp5143
I2
tp5144
a((I0
I1
I2
I3
tp5145
I0
tp5146
a((I0
I1
I2
I3
I4
tp5147
I3
tp5148
a((I0
I1
I2
I3
tp5149
I3
tp5150
a((I0
I1
I2
tp5151
I0
tp5152
a((I0
I1
I2
tp5153
I1
tp5154
a((I0
I1
I2
I3
tp5155
I0
tp5156
a((I0
I1
I2
I3
I4
I5
tp5157
I4
tp5158
a((I0
I1
I2
I3
tp5159
I0
tp5160
a((I0
I1
I2
I3
I4
tp5161
I3
tp5162
a((I0
I1
I2
I3
I4
tp5163
I0
tp5164
a((I0
I1
I2
I3
tp5165
I3
tp5166
a((I0
I1
I2
I3
tp5167
I3
tp5168
a((I0
I1
I2
I3
I4
tp5169
I3
tp5170
a((I0
I1
I2
I3
I5
tp5171
I4
tp5172
a((I0
I1
I2
I3
I5
tp5173
I1
tp5174
a((I0
I1
I2
I3
I4
tp5175
I2
tp5176
a((I0
I1
I2
tp5177
I0
tp5178
a((I0
I1
I2
I3
I4
tp5179
I3
tp5180
a((I0
I1
I2
I3
I4
tp5181
I3
tp5182
a((I0
I1
I2
tp5183
I0
tp5184
a((I0
I1
I2
I3
I4
tp5185
I1
tp5186
a((I0
I1
I2
I3
tp5187
I0
tp5188
a((I0
I1
I2
I3
I4
tp5189
I1
tp5190
a((I1
I2
I3
I4
tp5191
I2
tp5192
a((I0
I1
I2
I3
I4
tp5193
I3
tp5194
a((I0
I1
I2
I3
I4
tp5195
I3
tp5196
a((I0
I1
I2
I3
I5
tp5197
I0
tp5198
a((I1
I2
I3
tp5199
I2
tp5200
a((I0
I1
I2
I3
tp5201
I0
tp5202
a((I0
I1
I2
I3
tp5203
I0
tp5204
a((I0
I1
I2
tp5205
I1
tp5206
a((I0
I1
I2
I3
tp5207
I3
tp5208
a((I0
I1
I2
I3
I5
tp5209
I0
tp5210
a((I0
I1
I2
I3
tp5211
I3
tp5212
a((I0
I1
I2
I3
tp5213
I1
tp5214
a((I0
I1
I2
I3
tp5215
I1
tp5216
a((I0
I1
I2
tp5217
I0
tp5218
a((I0
I1
I2
I3
tp5219
I0
tp5220
a((I0
I1
I2
I3
tp5221
I0
tp5222
a((I0
I1
I2
I3
I4
I5
tp5223
I0
tp5224
a((I0
I1
I2
I3
tp5225
I0
tp5226
a((I0
I1
I2
I3
I4
tp5227
I3
tp5228
a((I0
I1
I2
I3
tp5229
I0
tp5230
a((I0
I1
I2
I3
tp5231
I1
tp5232
a((I0
I1
I2
I3
tp5233
I3
tp5234
a((I0
I1
I2
I3
tp5235
I0
tp5236
a((I0
I1
I2
I3
I4
tp5237
I3
tp5238
a((I0
I1
I2
I3
tp5239
I3
tp5240
a((I0
I1
I2
I3
tp5241
I0
tp5242
a((I0
I1
I2
I3
I4
tp5243
I0
tp5244
a((I1
I2
I3
I4
tp5245
I2
tp5246
a((I0
I1
I2
I3
I4
tp5247
I3
tp5248
a((I0
I1
I2
I3
tp5249
I0
tp5250
a((I0
I1
I2
I3
I5
tp5251
I3
tp5252
a((I0
I1
I2
I3
tp5253
I0
tp5254
a((I0
I1
I2
I3
I5
tp5255
I3
tp5256
a((I0
I1
I2
I3
tp5257
I0
tp5258
a((I1
I2
I3
I5
tp5259
I2
tp5260
a((I0
I1
I2
I3
tp5261
I3
tp5262
a((I1
I2
I3
I4
I5
tp5263
I4
tp5264
a((I1
I2
I3
I4
I5
tp5265
I2
tp5266
a((I1
I2
I3
tp5267
I2
tp5268
a((I1
I2
I3
I5
tp5269
I3
tp5270
a((I0
I1
I2
I3
I4
I5
tp5271
I0
tp5272
a((I0
I1
I2
I3
tp5273
I0
tp5274
a((I1
I2
I3
I5
tp5275
I2
tp5276
a((I1
I2
I3
I5
tp5277
I3
tp5278
a((I0
I1
I2
I3
tp5279
I0
tp5280
a((I0
I1
I2
I3
I5
tp5281
I3
tp5282
a((I1
I2
I3
I4
I5
tp5283
I2
tp5284
a((I0
I1
I2
I3
I5
tp5285
I3
tp5286
a((I0
I1
I2
I3
I4
I5
tp5287
I0
tp5288
a((I0
I1
I2
I3
tp5289
I0
tp5290
a((I0
I1
I2
tp5291
I0
tp5292
a((I0
I1
I2
I3
tp5293
I0
tp5294
a((I0
I1
I2
I3
tp5295
I0
tp5296
a((I0
I1
I2
I3
I4
tp5297
I3
tp5298
a((I1
I2
I3
I5
tp5299
I3
tp5300
a((I1
I2
I3
I5
tp5301
I2
tp5302
a((I0
I1
I2
I3
tp5303
I0
tp5304
a((I0
I1
I2
I3
I4
I5
tp5305
I5
tp5306
a((I0
I1
I2
I3
I4
I5
tp5307
I0
tp5308
a((I0
I1
I2
I3
tp5309
I1
tp5310
a((I0
I1
I2
I3
tp5311
I1
tp5312
a((I0
I1
I2
I3
I4
tp5313
I3
tp5314
a((I0
I1
I2
I3
tp5315
I0
tp5316
a((I0
I1
I2
I3
I4
tp5317
I0
tp5318
a((I0
I1
I2
I3
tp5319
I1
tp5320
a((I0
I1
I2
I3
tp5321
I3
tp5322
a((I0
I1
I2
I3
tp5323
I3
tp5324
a((I0
I1
I2
I3
I4
tp5325
I1
tp5326
a((I0
I1
I2
I3
I4
I5
tp5327
I0
tp5328
a((I1
I2
I3
I4
tp5329
I1
tp5330
a((I1
I2
I3
I4
tp5331
I0
tp5332
a((I0
I1
I2
I3
tp5333
I1
tp5334
a((I0
I1
I2
I3
I4
tp5335
I0
tp5336
a((I1
I2
I3
I5
tp5337
I2
tp5338
a((I0
I1
I2
I3
I5
tp5339
I0
tp5340
a((I0
I1
I2
tp5341
I0
tp5342
a((I0
I1
I2
I3
I4
tp5343
I0
tp5344
a((I0
I1
I2
I3
tp5345
I3
tp5346
a((I1
I2
I3
tp5347
I1
tp5348
a((I0
I1
I2
I3
I5
tp5349
I0
tp5350
a((I0
I1
I2
I3
I4
I5
tp5351
I0
tp5352
a((I0
I1
I2
I3
I4
tp5353
I0
tp5354
a((I0
I1
I2
I3
I4
tp5355
I0
tp5356
a((I1
I2
I3
I5
tp5357
I3
tp5358
a((I1
I2
I3
I5
tp5359
I0
tp5360
a((I0
I1
I2
I3
I4
tp5361
I0
tp5362
a((I0
I1
I2
I3
I4
tp5363
I1
tp5364
a((I0
I1
I2
I3
I4
tp5365
I0
tp5366
a((I0
I1
I2
tp5367
I0
tp5368
a((I0
I1
I2
I3
I4
I5
tp5369
I3
tp5370
a((I1
I2
I3
I4
tp5371
I2
tp5372
a((I0
I1
I2
I3
tp5373
I0
tp5374
a((I0
I1
I2
I3
I5
tp5375
I0
tp5376
a((I0
I1
I2
I3
I4
tp5377
I0
tp5378
a((I0
I1
I2
I3
tp5379
I0
tp5380
a((I0
I1
I2
I3
I4
tp5381
I0
tp5382
a((I0
I1
I2
I3
I4
tp5383
I0
tp5384
a((I0
I1
I2
tp5385
I1
tp5386
a((I1
I2
I3
tp5387
I2
tp5388
a((I0
I1
I2
I3
I5
tp5389
I0
tp5390
a((I0
I1
I2
I3
tp5391
I0
tp5392
a((I0
I1
I2
I3
tp5393
I3
tp5394
a((I1
I2
I3
I5
tp5395
I2
tp5396
a((I0
I1
I2
I3
tp5397
I0
tp5398
a((I0
I1
I2
I4
tp5399
I0
tp5400
a((I0
I1
I2
I3
I4
tp5401
I0
tp5402
a((I0
I1
I2
tp5403
I0
tp5404
a((I0
I1
I2
I3
I4
tp5405
I3
tp5406
a((I1
I2
I3
I4
tp5407
I1
tp5408
a((I0
I1
I2
I3
I4
tp5409
I3
tp5410
a((I0
I1
I2
I3
I4
tp5411
I3
tp5412
a((I0
I1
I2
I3
tp5413
I3
tp5414
a((I1
I2
I3
I5
tp5415
I2
tp5416
a((I0
I1
I2
I3
I5
tp5417
I0
tp5418
a((I0
I1
I2
I3
tp5419
I0
tp5420
a((I0
I1
I2
I3
I4
tp5421
I3
tp5422
a((I1
I2
I3
tp5423
I2
tp5424
a((I0
I1
I2
I3
tp5425
I0
tp5426
a((I0
I1
I2
I3
tp5427
I3
tp5428
a((I0
I1
I2
I3
tp5429
I3
tp5430
a((I0
I1
I2
I3
I5
tp5431
I0
tp5432
a((I0
I1
I2
I3
tp5433
I0
tp5434
a((I1
I2
I3
tp5435
I2
tp5436
a((I1
I2
I3
tp5437
I2
tp5438
a((I0
I1
I2
I3
I4
I5
tp5439
I1
tp5440
a((I0
I1
I2
I3
tp5441
I0
tp5442
a((I0
I1
I2
I3
tp5443
I3
tp5444
a((I0
I1
I2
I3
tp5445
I3
tp5446
a((I0
I1
I2
I3
I5
tp5447
I0
tp5448
a((I0
I1
I2
I3
tp5449
I1
tp5450
a((I0
I1
I2
tp5451
I0
tp5452
a((I1
I2
I3
I4
tp5453
I2
tp5454
a((I0
I1
I2
tp5455
I0
tp5456
a((I0
I1
I2
I3
I4
tp5457
I3
tp5458
a((I0
I1
I2
I3
I4
tp5459
I0
tp5460
a((I1
I2
I3
I4
tp5461
I2
tp5462
a((I0
I1
I2
I3
I4
I5
tp5463
I3
tp5464
a((I0
I1
I2
I3
I4
I5
tp5465
I1
tp5466
a((I1
I2
I3
I5
tp5467
I2
tp5468
a((I0
I1
I2
I3
I5
tp5469
I1
tp5470
a((I0
I1
I2
I3
tp5471
I0
tp5472
a((I0
I1
I2
I3
I4
I5
tp5473
I4
tp5474
a((I0
I1
I2
I3
I4
I5
tp5475
I3
tp5476
a((I1
I2
I3
I4
I5
tp5477
I4
tp5478
a((I0
I1
I2
I3
I5
tp5479
I4
tp5480
a((I1
I2
I3
tp5481
I2
tp5482
a((I1
I2
I3
I5
tp5483
I3
tp5484
a((I0
I1
I2
I3
tp5485
I1
tp5486
a((I1
I2
I3
I5
tp5487
I3
tp5488
a((I0
I1
I2
I3
I5
tp5489
I0
tp5490
a((I1
I2
I3
I5
tp5491
I3
tp5492
a((I1
I2
I3
tp5493
I2
tp5494
a((I0
I1
I2
I3
I5
tp5495
I1
tp5496
a((I0
I1
I2
I3
I5
tp5497
I3
tp5498
a((I0
I1
I2
I3
I5
tp5499
I3
tp5500
a((I0
I1
I2
I3
I4
I5
tp5501
I0
tp5502
a((I0
I1
I2
I3
I4
I5
tp5503
I0
tp5504
a((I0
I1
I2
I3
I5
tp5505
I0
tp5506
a((I1
I2
I3
I5
tp5507
I3
tp5508
a((I1
I2
I3
I5
tp5509
I2
tp5510
a((I0
I1
I2
I3
I5
tp5511
I3
tp5512
a((I1
I2
I3
I4
I5
tp5513
I2
tp5514
a((I0
I1
I2
I3
I5
tp5515
I4
tp5516
a((I0
I1
I2
I3
I4
I5
tp5517
I0
tp5518
a((I0
I1
I2
I3
I5
tp5519
I3
tp5520
a((I0
I1
I2
I3
tp5521
I0
tp5522
a((I0
I1
I2
I3
I4
I5
tp5523
I4
tp5524
a((I0
I1
I2
I3
I4
I5
tp5525
I0
tp5526
a((I0
I1
I2
I3
I4
tp5527
I1
tp5528
a((I0
I1
I2
I3
I4
tp5529
I1
tp5530
a((I0
I1
I2
I3
I4
tp5531
I4
tp5532
a((I1
I2
I3
I5
tp5533
I2
tp5534
a((I0
I1
I2
I3
I5
tp5535
I2
tp5536
a((I0
I1
I2
I3
tp5537
I0
tp5538
a((I0
I1
I2
I3
tp5539
I3
tp5540
a((I0
I1
I2
I3
I5
tp5541
I0
tp5542
a((I0
I1
I2
I3
tp5543
I1
tp5544
a((I0
I1
I2
I3
tp5545
I0
tp5546
a((I0
I1
I2
I3
I4
I5
tp5547
I1
tp5548
a((I0
I1
I2
I3
I4
I5
tp5549
I5
tp5550
a((I0
I1
I2
I3
tp5551
I0
tp5552
a((I1
I2
I3
I5
tp5553
I2
tp5554
a((I0
I1
I2
I3
I4
I5
tp5555
I0
tp5556
a((I1
I2
I3
I5
tp5557
I2
tp5558
a((I0
I1
I2
I3
I4
tp5559
I3
tp5560
a((I0
I1
I2
I3
I5
tp5561
I0
tp5562
a((I0
I1
I2
I3
tp5563
I0
tp5564
a((I0
I1
I2
I3
tp5565
I0
tp5566
a((I0
I1
I2
I3
tp5567
I0
tp5568
a((I0
I1
I2
I3
tp5569
I0
tp5570
a((I0
I1
I2
I3
tp5571
I0
tp5572
a((I0
I1
I2
I3
tp5573
I3
tp5574
a((I0
I1
I2
I3
I4
tp5575
I3
tp5576
a((I0
I1
I2
I3
I5
tp5577
I0
tp5578
a((I0
I1
I2
I3
I5
tp5579
I0
tp5580
a((I0
I1
I2
I3
I4
tp5581
I0
tp5582
a((I0
I1
I2
I3
I4
I5
tp5583
I3
tp5584
a((I0
I1
I2
I3
I4
I5
tp5585
I0
tp5586
a((I1
I2
I3
I5
tp5587
I3
tp5588
a((I0
I1
I2
I3
I4
I5
tp5589
I0
tp5590
a((I0
I1
I2
tp5591
I0
tp5592
a((I0
I1
I2
I3
tp5593
I0
tp5594
a((I1
I2
I3
I5
tp5595
I3
tp5596
a((I0
I1
I2
I3
tp5597
I0
tp5598
a((I0
I1
I2
I3
I5
tp5599
I0
tp5600
a((I0
I1
I2
I3
I4
I5
tp5601
I0
tp5602
a((I1
I2
I3
I4
I5
tp5603
I4
tp5604
a((I1
I2
I3
I5
tp5605
I3
tp5606
a((I0
I1
I2
I3
tp5607
I1
tp5608
a((I1
I2
I3
I5
tp5609
I2
tp5610
a((I1
I2
I3
tp5611
I2
tp5612
a((I0
I1
I2
tp5613
I0
tp5614
a((I1
I2
I3
I5
tp5615
I3
tp5616
a((I0
I1
I2
I3
I5
tp5617
I4
tp5618
a((I0
I1
I2
I3
tp5619
I0
tp5620
a((I1
I2
I3
I4
I5
tp5621
I2
tp5622
a((I0
I1
I2
I3
tp5623
I3
tp5624
a((I0
I1
I2
I3
I5
tp5625
I4
tp5626
a((I0
I1
I2
I3
I4
I5
tp5627
I0
tp5628
a((I1
I2
I3
tp5629
I2
tp5630
a((I0
I1
I2
I3
I4
tp5631
I1
tp5632
a((I0
I1
I2
I3
I5
tp5633
I3
tp5634
a((I0
I1
I2
I3
I4
I5
tp5635
I1
tp5636
a((I0
I1
I2
I3
I4
I5
tp5637
I1
tp5638
a((I0
I1
I2
tp5639
I0
tp5640
a((I0
I1
I2
I3
I4
I5
tp5641
I4
tp5642
a((I1
I2
I3
I5
tp5643
I2
tp5644
a((I0
I1
I2
I3
tp5645
I0
tp5646
a((I1
I2
I3
tp5647
I2
tp5648
a((I0
I1
I2
I3
I4
I5
tp5649
I5
tp5650
a((I0
I1
I2
I3
tp5651
I3
tp5652
a((I0
I1
I2
tp5653
I0
tp5654
a((I0
I1
I2
I3
I4
tp5655
I0
tp5656
a((I0
I1
I2
I3
I4
I5
tp5657
I3
tp5658
a((I0
I1
I2
tp5659
I0
tp5660
a((I0
I1
I2
I3
I4
I5
tp5661
I3
tp5662
a((I0
I1
I2
I3
tp5663
I0
tp5664
a((I0
I1
I2
I3
I5
tp5665
I0
tp5666
a((I1
I2
I3
I5
tp5667
I2
tp5668
a((I0
I1
I2
I3
I4
I5
tp5669
I3
tp5670
a((I0
I1
I2
I3
I4
I5
tp5671
I3
tp5672
a((I0
I1
I2
I3
tp5673
I0
tp5674
a((I0
I1
I2
I3
I4
tp5675
I0
tp5676
a((I0
I1
I2
I3
tp5677
I0
tp5678
a((I0
I1
I2
I3
I4
I5
tp5679
I3
tp5680
a((I1
I2
I3
I5
tp5681
I3
tp5682
a((I1
I2
I3
I5
tp5683
I3
tp5684
a((I0
I1
I2
tp5685
I0
tp5686
a((I0
I1
I2
I3
I4
I5
tp5687
I3
tp5688
a((I0
I1
I2
I3
I4
I5
tp5689
I0
tp5690
a((I0
I1
I2
I3
I5
tp5691
I4
tp5692
a((I1
I2
I3
I5
tp5693
I2
tp5694
a((I0
I1
I2
tp5695
I0
tp5696
a((I1
I2
I3
I5
tp5697
I2
tp5698
a((I0
I1
I2
I3
I4
I5
tp5699
I3
tp5700
a((I0
I1
I2
I3
tp5701
I0
tp5702
a((I0
I1
I2
I3
I5
tp5703
I0
tp5704
a((I0
I1
I2
I3
tp5705
I2
tp5706
a((I0
I1
I2
I3
tp5707
I0
tp5708
a((I1
I2
I3
I4
tp5709
I0
tp5710
a((I0
I1
I2
I3
I5
tp5711
I0
tp5712
a((I0
I1
I2
I3
tp5713
I0
tp5714
a((I0
I1
I2
I3
tp5715
I0
tp5716
a((I0
I1
I2
I3
I5
tp5717
I0
tp5718
a((I0
I1
I2
I3
I4
I5
tp5719
I0
tp5720
a((I1
I2
I3
I4
tp5721
I0
tp5722
a((I0
I1
I2
I3
I4
tp5723
I0
tp5724
a((I0
I1
I2
I3
I5
tp5725
I0
tp5726
a((I0
I1
I2
I3
I4
tp5727
I0
tp5728
a((I0
I1
I2
I3
tp5729
I3
tp5730
a((I0
I1
I2
I3
tp5731
I0
tp5732
a((I0
I1
I2
I3
tp5733
I0
tp5734
a((I0
I1
I2
I3
I4
I5
tp5735
I0
tp5736
a((I0
I1
I2
I3
I4
tp5737
I0
tp5738
a((I0
I1
I2
I3
I4
tp5739
I1
tp5740
a((I0
I1
I2
I3
I4
tp5741
I1
tp5742
a((I0
I1
I2
I3
I4
I5
tp5743
I0
tp5744
a((I0
I1
I2
I3
tp5745
I0
tp5746
a((I0
I1
I2
I3
I5
tp5747
I0
tp5748
a((I0
I1
I2
I3
tp5749
I1
tp5750
a((I0
I1
I2
I3
I4
tp5751
I0
tp5752
a((I0
I1
I2
I3
I4
I5
tp5753
I0
tp5754
a((I0
I1
I2
I3
I4
I5
tp5755
I0
tp5756
a((I0
I1
I2
I3
tp5757
I2
tp5758
a((I0
I1
I2
I3
tp5759
I0
tp5760
a((I0
I1
I2
tp5761
I0
tp5762
a((I0
I1
I2
I3
tp5763
I1
tp5764
a((I0
I1
I2
I3
I4
I5
tp5765
I0
tp5766
a((I0
I1
I2
tp5767
I0
tp5768
a((I0
I1
I2
I3
I4
I5
tp5769
I0
tp5770
a((I0
I1
I2
tp5771
I0
tp5772
a((I0
I1
I2
I3
tp5773
I0
tp5774
a((I0
I1
I2
tp5775
I0
tp5776
a((I0
I1
I2
I3
tp5777
I1
tp5778
a((I0
I1
I2
I3
tp5779
I3
tp5780
a((I0
I1
I2
I3
tp5781
I0
tp5782
a((I0
I1
I2
tp5783
I0
tp5784
a((I0
I1
I2
I3
I4
I5
tp5785
I0
tp5786
a((I0
I1
I2
I3
I5
tp5787
I0
tp5788
a((I0
I1
I2
I3
I4
I5
tp5789
I0
tp5790
a((I0
I1
I2
I3
I4
I5
tp5791
I0
tp5792
a((I0
I1
I2
tp5793
I0
tp5794
a((I0
I1
I2
I3
I4
tp5795
I0
tp5796
a((I0
I1
I2
I3
tp5797
I0
tp5798
a((I0
I1
I2
I3
tp5799
I0
tp5800
a((I0
I1
I2
I3
tp5801
I0
tp5802
a((I0
I1
I2
tp5803
I0
tp5804
a((I0
I1
I2
I3
tp5805
I3
tp5806
a((I0
I1
I2
I3
tp5807
I0
tp5808
a((I0
I1
I2
I3
tp5809
I0
tp5810
a((I0
I1
I2
I3
I5
tp5811
I0
tp5812
a((I0
I1
I2
I3
tp5813
I0
tp5814
a((I0
I1
I2
tp5815
I1
tp5816
a((I0
I1
I2
I3
tp5817
I2
tp5818
a((I0
I1
I2
I3
tp5819
I2
tp5820
a((I0
I1
I2
I3
tp5821
I0
tp5822
a((I0
I1
I2
I3
I5
tp5823
I0
tp5824
a((I0
I1
I2
I3
tp5825
I0
tp5826
a((I0
I1
I2
I3
I4
tp5827
I0
tp5828
a((I0
I1
I2
I3
I4
tp5829
I0
tp5830
a((I0
I1
I2
I3
tp5831
I0
tp5832
a((I0
I1
I2
I3
I4
tp5833
I0
tp5834
a((I0
I1
I2
I3
I4
tp5835
I0
tp5836
a((I0
I1
I2
I3
tp5837
I0
tp5838
a((I0
I1
I2
I3
tp5839
I0
tp5840
a((I0
I1
I2
I3
tp5841
I0
tp5842
a((I0
I1
I2
I3
I4
tp5843
I0
tp5844
a((I0
I1
I2
I3
I4
I5
tp5845
I0
tp5846
a((I0
I1
I2
I3
tp5847
I3
tp5848
a((I0
I1
I2
I3
tp5849
I3
tp5850
a((I0
I1
I2
tp5851
I0
tp5852
a((I0
I1
I2
I3
tp5853
I0
tp5854
a((I0
I1
I2
I3
tp5855
I0
tp5856
a((I0
I1
I2
tp5857
I0
tp5858
a((I0
I1
I2
I3
tp5859
I1
tp5860
a((I0
I1
I2
I3
I5
tp5861
I4
tp5862
a((I0
I1
I2
I3
tp5863
I0
tp5864
a((I0
I1
I2
I3
I4
I5
tp5865
I0
tp5866
a((I0
I1
I2
I3
I4
I5
tp5867
I0
tp5868
a((I0
I1
I2
I3
tp5869
I0
tp5870
a((I0
I1
I2
I3
I5
tp5871
I1
tp5872
a((I0
I1
I2
I3
tp5873
I0
tp5874
a((I1
I2
I3
I5
tp5875
I0
tp5876
a((I0
I1
I2
I3
I4
I5
tp5877
I1
tp5878
a((I0
I1
I2
I3
I4
tp5879
I1
tp5880
a((I0
I1
I2
I3
I4
tp5881
I0
tp5882
a((I0
I1
I2
I3
tp5883
I0
tp5884
a((I0
I1
I2
I3
I4
I5
tp5885
I0
tp5886
a((I0
I1
I2
I3
I4
I5
tp5887
I0
tp5888
a((I0
I1
I2
I3
tp5889
I0
tp5890
a((I0
I1
I2
I3
tp5891
I3
tp5892
a((I1
I2
I3
I4
tp5893
I3
tp5894
a((I1
I2
I3
tp5895
I2
tp5896
a((I0
I1
I2
I3
I4
tp5897
I0
tp5898
a((I0
I1
I2
I3
tp5899
I0
tp5900
a((I0
I1
I2
I3
I4
I5
tp5901
I1
tp5902
a((I0
I1
I2
I3
tp5903
I1
tp5904
a((I0
I1
I2
I3
tp5905
I0
tp5906
a((I0
I1
I2
I3
tp5907
I0
tp5908
a((I0
I1
I2
I3
tp5909
I1
tp5910
a((I0
I1
I2
I3
tp5911
I1
tp5912
a((I0
I1
I2
I3
tp5913
I0
tp5914
a((I0
I1
I2
tp5915
I1
tp5916
a((I0
I1
I2
tp5917
I1
tp5918
a((I0
I1
I2
I4
tp5919
I0
tp5920
a((I0
I1
I2
I4
tp5921
I0
tp5922
a((I0
I1
I2
I3
I4
tp5923
I1
tp5924
a((I0
I1
I2
I3
I5
tp5925
I1
tp5926
a((I1
I2
I3
I5
tp5927
I0
tp5928
a((I0
I1
I2
I3
tp5929
I0
tp5930
a((I0
I1
I2
I3
tp5931
I0
tp5932
a((I0
I1
I2
I3
tp5933
I0
tp5934
a((I0
I1
I2
I3
tp5935
I0
tp5936
a((I0
I1
I2
I3
I5
tp5937
I4
tp5938
a((I0
I1
I2
I3
tp5939
I0
tp5940
a((I0
I1
I2
I3
I4
tp5941
I0
tp5942
a((I0
I1
I2
I3
I4
tp5943
I0
tp5944
a((I0
I1
I2
I3
tp5945
I0
tp5946
a((I0
I1
I2
I3
tp5947
I0
tp5948
a((I0
I1
I2
I3
I5
tp5949
I0
tp5950
a((I0
I1
I2
I3
I4
tp5951
I0
tp5952
a((I0
I1
I2
I3
tp5953
I0
tp5954
a((I0
I1
I2
I3
I4
tp5955
I0
tp5956
a((I0
I1
I2
I3
I4
I5
tp5957
I0
tp5958
a((I0
I1
I2
I3
I4
tp5959
I0
tp5960
a((I0
I1
I2
I3
tp5961
I0
tp5962
a((I0
I1
I2
I3
I4
tp5963
I0
tp5964
a((I0
I1
I2
I3
tp5965
I2
tp5966
a((I0
I1
I2
I3
I4
I5
tp5967
I0
tp5968
a((I0
I1
I2
I3
I5
tp5969
I0
tp5970
a((I0
I1
I2
I3
I4
tp5971
I0
tp5972
a((I0
I1
I2
I3
I5
tp5973
I0
tp5974
a((I0
I1
I2
I3
tp5975
I0
tp5976
a((I0
I1
I2
I3
I4
I5
tp5977
I0
tp5978
a((I0
I1
I2
I3
tp5979
I3
tp5980
a((I0
I1
I2
I3
tp5981
I0
tp5982
a((I0
I1
I2
I3
tp5983
I3
tp5984
a((I0
I1
I2
I3
I5
tp5985
I0
tp5986
a((I0
I1
I2
I3
tp5987
I0
tp5988
a((I0
I1
I2
I3
tp5989
I3
tp5990
a((I0
I1
I2
I3
tp5991
I0
tp5992
a((I0
I1
I2
I3
tp5993
I0
tp5994
a((I0
I1
I2
I3
I5
tp5995
I0
tp5996
a((I0
I1
I2
I3
tp5997
I0
tp5998
a((I0
I1
I2
I3
I4
tp5999
I0
tp6000
a((I0
I1
I2
I3
I4
tp6001
I0
tp6002
a((I0
I1
I2
I3
tp6003
I0
tp6004
a((I0
I1
I2
I3
I4
I5
tp6005
I0
tp6006
a((I0
I1
I2
tp6007
I0
tp6008
a((I0
I1
I2
I3
tp6009
I0
tp6010
a((I0
I1
I2
I3
tp6011
I1
tp6012
a((I0
I1
I2
I3
tp6013
I3
tp6014
a((I0
I1
I2
I3
I4
I5
tp6015
I0
tp6016
a((I1
I2
I3
tp6017
I0
tp6018
a((I0
I1
I2
I3
tp6019
I1
tp6020
a((I0
I1
I2
I3
tp6021
I0
tp6022
a((I0
I1
I2
I3
I5
tp6023
I0
tp6024
a((I0
I1
I2
I3
tp6025
I0
tp6026
a((I0
I1
I2
tp6027
I0
tp6028
a((I0
I1
I2
tp6029
I0
tp6030
a((I0
I1
I2
I3
I4
I5
tp6031
I0
tp6032
a((I0
I1
I2
I3
tp6033
I2
tp6034
a((I0
I1
I2
I3
tp6035
I1
tp6036
a((I0
I1
I2
I3
I4
I5
tp6037
I0
tp6038
a((I0
I1
I2
tp6039
I0
tp6040
a((I0
I1
I2
I3
I5
tp6041
I1
tp6042
a((I1
I2
I3
I5
tp6043
I0
tp6044
a((I0
I1
I2
I3
I4
tp6045
I0
tp6046
a((I0
I1
I2
I3
I4
tp6047
I0
tp6048
a((I0
I1
I2
I3
I4
tp6049
I1
tp6050
a((I0
I1
I2
I3
tp6051
I0
tp6052
a((I0
I1
I2
I3
I5
tp6053
I3
tp6054
a((I0
I1
I2
I3
tp6055
I0
tp6056
a((I0
I1
I2
tp6057
I0
tp6058
a((I0
I1
I2
I3
I4
tp6059
I0
tp6060
a((I0
I1
I2
tp6061
I2
tp6062
a((I0
I1
I2
tp6063
I0
tp6064
a((I0
I1
I2
I3
tp6065
I0
tp6066
a((I0
I1
I2
I3
tp6067
I0
tp6068
a((I0
I1
I2
I3
tp6069
I0
tp6070
a((I0
I1
I2
tp6071
I0
tp6072
a((I0
I1
I2
tp6073
I0
tp6074
a((I0
I1
I2
I3
tp6075
I0
tp6076
a((I0
I1
I2
I3
tp6077
I0
tp6078
a((I0
I1
I2
I3
tp6079
I0
tp6080
a((I0
I1
I2
I3
tp6081
I0
tp6082
a((I0
I1
I2
tp6083
I0
tp6084
a((I0
I1
I2
I3
tp6085
I1
tp6086
a((I1
I2
I3
I5
tp6087
I3
tp6088
a((I0
I1
I2
I3
tp6089
I0
tp6090
a((I0
I1
I2
I3
I4
tp6091
I4
tp6092
a((I0
I1
I2
I3
tp6093
I0
tp6094
a((I0
I1
I2
I3
I4
I5
tp6095
I0
tp6096
a((I0
I1
I2
I3
I4
I5
tp6097
I0
tp6098
a((I0
I1
I2
tp6099
I0
tp6100
a((I0
I1
I2
I3
I4
I5
tp6101
I1
tp6102
a((I0
I1
I2
I3
I4
I5
tp6103
I1
tp6104
a((I0
I1
I2
I3
I4
tp6105
I0
tp6106
a((I0
I1
I2
I3
tp6107
I0
tp6108
a((I0
I1
I2
I3
I5
tp6109
I0
tp6110
a((I0
I1
I2
I3
I4
tp6111
I0
tp6112
a((I0
I1
I2
I3
I5
tp6113
I0
tp6114
a((I0
I1
I2
I3
I5
tp6115
I0
tp6116
a((I0
I1
I2
I3
I5
tp6117
I0
tp6118
a((I0
I1
I2
I3
I5
tp6119
I0
tp6120
a((I0
I1
I2
I3
tp6121
I0
tp6122
a((I0
I1
I2
I3
tp6123
I0
tp6124
a((I0
I1
I2
I3
I4
tp6125
I1
tp6126
a((I0
I1
I2
I3
tp6127
I1
tp6128
a((I0
I1
I2
I3
I5
tp6129
I4
tp6130
a((I0
I1
I2
I3
I4
tp6131
I0
tp6132
a((I0
I1
I2
tp6133
I1
tp6134
a((I0
I1
I2
I3
I5
tp6135
I0
tp6136
a((I0
I1
I2
I3
I5
tp6137
I1
tp6138
a((I0
I1
I2
I3
I4
tp6139
I0
tp6140
a((I0
I1
I2
I3
tp6141
I0
tp6142
a((I0
I1
I2
I3
tp6143
I0
tp6144
a((I0
I1
I2
I3
tp6145
I0
tp6146
a((I0
I1
I2
I3
tp6147
I0
tp6148
a((I0
I1
I2
I3
I4
tp6149
I0
tp6150
a((I0
I1
I2
tp6151
I0
tp6152
a((I0
I1
I2
I3
I4
I5
tp6153
I0
tp6154
a((I0
I1
I2
I3
tp6155
I0
tp6156
a((I0
I1
I2
I3
I4
I5
tp6157
I0
tp6158
a((I0
I1
I2
tp6159
I0
tp6160
a((I0
I1
I2
I3
I4
I5
tp6161
I0
tp6162
a((I0
I1
I2
I3
tp6163
I0
tp6164
a((I0
I1
I2
I3
I4
I5
tp6165
I2
tp6166
a((I0
I1
I2
I3
tp6167
I1
tp6168
a((I0
I1
I2
I3
tp6169
I0
tp6170
a((I1
I2
I3
I4
I5
tp6171
I0
tp6172
a((I1
I2
I3
I4
I5
tp6173
I3
tp6174
a((I0
I1
I2
I3
I5
tp6175
I0
tp6176
a((I0
I1
I2
I3
tp6177
I1
tp6178
a((I0
I1
I2
I3
I4
tp6179
I4
tp6180
a((I0
I1
I2
I3
tp6181
I0
tp6182
a((I0
I1
I2
I3
I4
tp6183
I0
tp6184
a((I0
I1
I2
I3
I4
I5
tp6185
I0
tp6186
a((I0
I1
I2
I3
I4
I5
tp6187
I0
tp6188
a((I0
I1
I2
I3
tp6189
I0
tp6190
a((I0
I1
I2
I3
tp6191
I0
tp6192
a((I0
I1
I2
I3
I5
tp6193
I0
tp6194
a((I0
I1
I2
I3
I4
I5
tp6195
I0
tp6196
a((I0
I1
I2
I3
I5
tp6197
I1
tp6198
a((I0
I1
I2
I3
I5
tp6199
I1
tp6200
a((I0
I1
I2
I3
tp6201
I2
tp6202
a((I0
I1
I2
I3
tp6203
I0
tp6204
a((I0
I1
I2
I3
tp6205
I0
tp6206
a((I0
I1
I2
tp6207
I0
tp6208
a((I0
I1
I2
I3
I5
tp6209
I0
tp6210
a((I0
I1
I2
I3
I5
tp6211
I0
tp6212
a((I0
I1
I2
I3
I4
tp6213
I0
tp6214
a((I0
I1
I2
I3
I4
tp6215
I0
tp6216
a((I0
I1
I2
I3
I4
tp6217
I0
tp6218
a((I0
I1
I2
I3
tp6219
I0
tp6220
a((I0
I1
I2
I3
tp6221
I0
tp6222
a((I0
I1
I2
I4
I5
tp6223
I0
tp6224
a((I0
I1
I2
tp6225
I0
tp6226
a((I0
I1
I2
I3
tp6227
I0
tp6228
a((I0
I1
I2
tp6229
I0
tp6230
a((I0
I1
I2
I3
I4
I5
tp6231
I0
tp6232
a((I0
I1
I2
I3
tp6233
I0
tp6234
a((I0
I1
I2
I3
I4
I5
tp6235
I0
tp6236
a((I0
I1
I2
I3
tp6237
I0
tp6238
a((I0
I1
I2
I3
tp6239
I0
tp6240
a((I0
I1
I2
I3
tp6241
I0
tp6242
a((I0
I1
I2
I3
I4
I5
tp6243
I0
tp6244
a((I1
I2
I3
I4
I5
tp6245
I0
tp6246
a((I1
I2
I3
I5
tp6247
I3
tp6248
a((I0
I1
I2
I3
tp6249
I0
tp6250
a((I0
I1
I2
I3
I4
tp6251
I0
tp6252
a((I0
I1
I2
I3
I4
tp6253
I0
tp6254
a((I0
I1
I2
I3
I4
tp6255
I0
tp6256
a((I0
I1
I2
I3
tp6257
I0
tp6258
a((I0
I1
I2
tp6259
I0
tp6260
a((I0
I1
I2
I3
I4
I5
tp6261
I0
tp6262
a((I0
I1
I2
I3
I4
tp6263
I0
tp6264
a((I0
I1
I2
I3
I5
tp6265
I4
tp6266
a((I0
I1
I2
I3
I4
tp6267
I1
tp6268
a((I0
I1
I2
I3
tp6269
I0
tp6270
a((I0
I1
I2
I3
I5
tp6271
I0
tp6272
a((I1
I2
I3
I4
I5
tp6273
I4
tp6274
a((I0
I1
I2
I3
I4
tp6275
I0
tp6276
a((I0
I1
I2
I3
tp6277
I0
tp6278
a((I0
I1
I2
I3
I4
I5
tp6279
I0
tp6280
a((I0
I1
I2
I3
I4
tp6281
I0
tp6282
a((I0
I1
I2
tp6283
I0
tp6284
a((I0
I1
I2
I3
I4
tp6285
I0
tp6286
a((I1
I2
I3
I5
tp6287
I2
tp6288
a((I0
I1
I2
I3
tp6289
I0
tp6290
a((I0
I1
I2
I3
I4
I5
tp6291
I0
tp6292
a((I0
I1
I2
I3
tp6293
I2
tp6294
a((I0
I1
I2
I3
tp6295
I2
tp6296
a((I0
I1
I2
I3
tp6297
I2
tp6298
a((I0
I1
I2
I3
tp6299
I2
tp6300
a((I0
I1
I2
I3
tp6301
I2
tp6302
a((I0
I1
I2
I3
I4
tp6303
I0
tp6304
a((I0
I1
I2
I3
I4
I5
tp6305
I0
tp6306
a((I0
I1
I2
tp6307
I0
tp6308
a((I0
I1
I2
I3
I4
tp6309
I0
tp6310
a((I0
I1
I2
I3
tp6311
I0
tp6312
a((I0
I1
I2
I3
tp6313
I0
tp6314
a((I0
I1
I2
tp6315
I0
tp6316
a((I0
I1
I2
I3
tp6317
I0
tp6318
a((I0
I1
I2
I3
I4
tp6319
I0
tp6320
a((I0
I1
I2
I3
tp6321
I0
tp6322
a((I0
I1
I2
I3
tp6323
I0
tp6324
a((I0
I1
I2
I3
tp6325
I0
tp6326
a((I0
I1
I2
I3
I4
I5
tp6327
I0
tp6328
a((I0
I1
I2
I3
I4
I5
tp6329
I0
tp6330
a((I0
I1
I2
I3
I4
tp6331
I4
tp6332
a((I0
I1
I2
tp6333
I0
tp6334
a((I0
I1
I2
I3
tp6335
I0
tp6336
a((I0
I1
I2
I3
tp6337
I2
tp6338
a((I0
I1
I2
I3
tp6339
I0
tp6340
a((I0
I1
I2
I3
tp6341
I0
tp6342
a((I0
I1
I2
I3
I4
I5
tp6343
I0
tp6344
a((I0
I1
I2
I3
tp6345
I0
tp6346
a((I0
I1
I2
I3
tp6347
I0
tp6348
a((I1
I2
I3
tp6349
I2
tp6350
a((I0
I1
I2
I3
I4
I5
tp6351
I0
tp6352
a((I0
I1
I2
I3
tp6353
I0
tp6354
a((I0
I1
I2
I3
I4
tp6355
I0
tp6356
a((I0
I1
I2
I3
tp6357
I1
tp6358
a((I0
I1
I2
tp6359
I0
tp6360
a((I0
I1
I2
I3
tp6361
I1
tp6362
a((I0
I1
I2
I3
tp6363
I0
tp6364
a((I0
I1
I2
I3
tp6365
I0
tp6366
a((I0
I1
I2
I3
I4
I5
tp6367
I1
tp6368
a((I0
I1
I2
I3
I4
I5
tp6369
I0
tp6370
a((I0
I1
I2
I3
I4
tp6371
I0
tp6372
a((I0
I1
I2
tp6373
I0
tp6374
a((I0
I1
I2
I3
tp6375
I2
tp6376
a((I0
I1
I2
I3
I5
tp6377
I0
tp6378
a((I0
I1
I2
I3
I5
tp6379
I1
tp6380
a((I0
I1
I2
I3
I4
tp6381
I0
tp6382
a((I0
I1
I2
I3
tp6383
I3
tp6384
a((I0
I1
I2
I3
tp6385
I3
tp6386
a((I1
I2
I3
I4
I5
tp6387
I0
tp6388
a((I1
I2
I3
tp6389
I2
tp6390
a((I0
I1
I2
I3
I5
tp6391
I0
tp6392
a((I0
I1
I2
I3
tp6393
I0
tp6394
a((I0
I1
I2
I3
I4
I5
tp6395
I0
tp6396
a((I0
I1
I2
I3
tp6397
I0
tp6398
a((I0
I1
I2
I3
tp6399
I0
tp6400
a((I0
I1
I2
I3
I5
tp6401
I0
tp6402
a((I0
I1
I2
tp6403
I0
tp6404
a((I0
I1
I2
I3
I4
I5
tp6405
I0
tp6406
a((I0
I1
I2
I3
I5
tp6407
I0
tp6408
a((I0
I1
I2
I3
I4
tp6409
I0
tp6410
a((I0
I1
I2
I3
tp6411
I0
tp6412
a((I0
I1
I2
I3
tp6413
I0
tp6414
a((I0
I1
I2
I3
I4
tp6415
I0
tp6416
a((I0
I1
I2
I3
I5
tp6417
I0
tp6418
a((I0
I1
I2
tp6419
I0
tp6420
a((I0
I1
I2
I3
I4
tp6421
I0
tp6422
a((I0
I1
I2
I3
I4
tp6423
I0
tp6424
a((I0
I1
I2
tp6425
I2
tp6426
a((I0
I1
I2
I3
tp6427
I0
tp6428
a((I0
I1
I2
I3
I4
I5
tp6429
I2
tp6430
a((I0
I1
I2
I3
I4
I5
tp6431
I0
tp6432
a((I0
I1
I2
I3
I4
I5
tp6433
I0
tp6434
a((I0
I1
I2
tp6435
I0
tp6436
a((I0
I1
I2
I3
tp6437
I0
tp6438
a((I0
I1
I2
I3
I5
tp6439
I1
tp6440
a((I0
I1
I2
I3
tp6441
I0
tp6442
a((I0
I1
I2
I3
I5
tp6443
I0
tp6444
a((I0
I1
I2
I3
I5
tp6445
I0
tp6446
a((I0
I1
I2
I3
tp6447
I0
tp6448
a((I0
I1
I2
I3
tp6449
I0
tp6450
a((I0
I1
I2
I3
I5
tp6451
I0
tp6452
a((I0
I1
I2
tp6453
I0
tp6454
a((I0
I1
I2
tp6455
I0
tp6456
a((I0
I1
I2
I3
I4
tp6457
I0
tp6458
a((I0
I1
I2
I3
I5
tp6459
I4
tp6460
a((I0
I1
I2
I3
tp6461
I0
tp6462
a((I0
I1
I2
I3
tp6463
I0
tp6464
a((I0
I1
I2
I3
tp6465
I0
tp6466
a((I0
I1
I2
I3
I5
tp6467
I0
tp6468
a((I0
I1
I2
I3
tp6469
I0
tp6470
a((I0
I1
I2
I3
I4
tp6471
I0
tp6472
a((I0
I1
I2
I3
I4
I5
tp6473
I0
tp6474
a((I0
I1
I2
I3
tp6475
I0
tp6476
a((I0
I1
I2
tp6477
I1
tp6478
a((I0
I1
I2
I3
I4
tp6479
I0
tp6480
a((I0
I1
I2
I3
tp6481
I0
tp6482
a((I0
I1
I2
I3
I5
tp6483
I0
tp6484
a((I0
I1
I2
I3
I4
I5
tp6485
I0
tp6486
a((I0
I1
I2
tp6487
I0
tp6488
a((I0
I1
I2
I3
tp6489
I0
tp6490
a((I0
I1
I2
I3
tp6491
I0
tp6492
a((I0
I1
I2
I3
I4
tp6493
I0
tp6494
a((I0
I1
I2
tp6495
I0
tp6496
a((I0
I1
I2
I3
I5
tp6497
I1
tp6498
a((I0
I1
I2
I3
I5
tp6499
I4
tp6500
a((I0
I1
I2
I3
I5
tp6501
I4
tp6502
a((I0
I1
I2
tp6503
I1
tp6504
a((I0
I1
I2
I3
I4
I5
tp6505
I0
tp6506
a((I0
I1
I2
I3
I4
I5
tp6507
I0
tp6508
a((I0
I1
I2
I3
I4
I5
tp6509
I0
tp6510
a((I0
I1
I2
tp6511
I0
tp6512
a((I0
I1
I2
I3
I4
I5
tp6513
I0
tp6514
a((I0
I1
I2
I3
I4
I5
tp6515
I5
tp6516
a((I0
I1
I2
I3
tp6517
I2
tp6518
a((I0
I1
I2
I3
tp6519
I1
tp6520
a((I0
I1
I2
I3
I4
tp6521
I0
tp6522
a((I0
I1
I2
I3
I4
I5
tp6523
I0
tp6524
a((I0
I1
I2
tp6525
I0
tp6526
a((I0
I1
I2
I3
I5
tp6527
I0
tp6528
a((I0
I1
I2
I3
tp6529
I0
tp6530
a((I0
I1
I2
I3
I4
tp6531
I0
tp6532
a((I0
I1
I2
I3
tp6533
I0
tp6534
a((I0
I1
I2
I3
I5
tp6535
I0
tp6536
a((I0
I1
I2
I3
tp6537
I0
tp6538
a((I0
I1
I2
I3
tp6539
I3
tp6540
a((I0
I1
I2
I3
I4
I5
tp6541
I0
tp6542
a((I0
I1
I2
I3
I4
tp6543
I0
tp6544
a((I0
I1
I2
I3
I5
tp6545
I0
tp6546
a((I0
I1
I2
I3
I4
tp6547
I0
tp6548
a((I0
I1
I2
I3
I4
tp6549
I0
tp6550
a((I0
I1
I2
tp6551
I0
tp6552
a((I0
I1
I2
I3
I4
tp6553
I0
tp6554
a((I0
I1
I2
I3
I4
I5
tp6555
I0
tp6556
a((I0
I1
I2
I3
tp6557
I0
tp6558
a((I0
I1
I2
I3
tp6559
I0
tp6560
a((I0
I1
I2
I3
I5
tp6561
I0
tp6562
a((I0
I1
I2
I3
tp6563
I0
tp6564
a((I0
I1
I2
I3
tp6565
I0
tp6566
a((I0
I1
I2
I3
I4
I5
tp6567
I0
tp6568
a((I0
I1
I2
I3
I4
tp6569
I0
tp6570
a((I0
I1
I2
I3
tp6571
I1
tp6572
a((I0
I1
I2
I3
tp6573
I0
tp6574
a((I0
I1
I2
I3
tp6575
I0
tp6576
a((I0
I1
I2
I3
tp6577
I0
tp6578
a((I0
I1
I2
I3
tp6579
I3
tp6580
a((I0
I1
I2
I3
tp6581
I0
tp6582
a((I0
I1
I2
I3
tp6583
I0
tp6584
a((I0
I1
I2
I3
tp6585
I3
tp6586
a((I0
I1
I2
tp6587
I0
tp6588
a((I0
I1
I2
I3
tp6589
I3
tp6590
a((I0
I1
I2
I3
I4
I5
tp6591
I1
tp6592
a((I0
I1
I2
I4
tp6593
I0
tp6594
a((I0
I1
I2
I3
I4
tp6595
I0
tp6596
a((I0
I1
I2
I3
I4
tp6597
I0
tp6598
a((I0
I1
I2
tp6599
I0
tp6600
a((I0
I1
I2
tp6601
I0
tp6602
a((I0
I1
I2
I3
I4
tp6603
I0
tp6604
a((I0
I1
I2
I3
tp6605
I0
tp6606
a((I0
I1
I2
tp6607
I0
tp6608
a((I0
I1
I2
tp6609
I1
tp6610
a((I0
I1
I2
tp6611
I0
tp6612
a((I0
I1
I2
I3
I4
tp6613
I0
tp6614
a((I0
I1
I2
I3
I5
tp6615
I4
tp6616
a((I0
I1
I2
I3
I4
tp6617
I0
tp6618
a((I0
I1
I2
tp6619
I0
tp6620
a((I0
I1
I2
I3
tp6621
I0
tp6622
a((I0
I1
I2
I3
tp6623
I0
tp6624
a((I0
I1
I2
tp6625
I1
tp6626
a((I1
I2
I3
I5
tp6627
I3
tp6628
a((I0
I1
I2
I3
I4
I5
tp6629
I0
tp6630
a((I1
I2
I3
I4
I5
tp6631
I0
tp6632
a((I0
I1
I2
I3
I4
I5
tp6633
I5
tp6634
a((I0
I1
I2
tp6635
I0
tp6636
a((I0
I1
I2
I3
I5
tp6637
I0
tp6638
a((I0
I1
I2
tp6639
I0
tp6640
a((I0
I1
I2
I3
I4
tp6641
I0
tp6642
a((I0
I1
I2
I3
I4
tp6643
I0
tp6644
a((I0
I1
I2
I3
I4
tp6645
I0
tp6646
a((I0
I1
I2
tp6647
I0
tp6648
a((I0
I1
I2
tp6649
I0
tp6650
a((I0
I1
I2
tp6651
I0
tp6652
a((I0
I1
I2
I3
I4
I5
tp6653
I0
tp6654
a((I0
I1
I2
I3
I4
I5
tp6655
I0
tp6656
a((I0
I1
I2
I3
tp6657
I0
tp6658
a((I0
I1
I2
tp6659
I0
tp6660
a((I0
I1
I2
I3
tp6661
I0
tp6662
a((I0
I1
I2
tp6663
I0
tp6664
a((I0
I1
I2
I3
tp6665
I0
tp6666
a((I0
I1
I2
I3
I4
tp6667
I0
tp6668
a((I0
I1
I2
tp6669
I0
tp6670
a((I0
I1
I2
I3
I5
tp6671
I1
tp6672
a((I0
I1
I2
I3
I4
tp6673
I3
tp6674
a((I0
I1
I2
I3
I4
tp6675
I3
tp6676
a((I0
I1
I2
I3
I4
I5
tp6677
I0
tp6678
a((I0
I1
I2
I3
tp6679
I3
tp6680
a((I0
I1
I2
I3
I4
tp6681
I0
tp6682
a((I0
I1
I2
I3
tp6683
I0
tp6684
a((I0
I1
I2
I3
tp6685
I0
tp6686
a((I0
I1
I2
I3
tp6687
I1
tp6688
a((I1
I2
I3
tp6689
I0
tp6690
a((I0
I1
I2
I3
tp6691
I0
tp6692
a((I0
I1
I2
I3
tp6693
I0
tp6694
a((I0
I1
I2
I3
I4
tp6695
I3
tp6696
a((I0
I1
I2
tp6697
I0
tp6698
a((I0
I1
I2
I5
tp6699
I0
tp6700
a((I0
I1
I2
I5
tp6701
I0
tp6702
a((I0
I1
I2
tp6703
I0
tp6704
a((I0
I1
I2
I3
tp6705
I1
tp6706
a((I0
I1
I2
I3
tp6707
I1
tp6708
a((I0
I1
I2
I3
tp6709
I1
tp6710
a((I0
I1
I2
I3
tp6711
I3
tp6712
a((I0
I1
I2
I3
tp6713
I0
tp6714
a((I0
I1
I2
I3
I5
tp6715
I0
tp6716
a((I0
I1
I2
I3
I4
I5
tp6717
I0
tp6718
a((I0
I1
I2
I3
I4
tp6719
I0
tp6720
a((I0
I1
I2
I3
I4
tp6721
I0
tp6722
a((I0
I1
I2
tp6723
I0
tp6724
a((I0
I1
I2
I3
tp6725
I0
tp6726
a((I0
I1
I2
tp6727
I0
tp6728
a((I0
I1
I2
I3
tp6729
I0
tp6730
a((I0
I1
I2
I3
I4
tp6731
I0
tp6732
a((I0
I1
I2
I3
I4
tp6733
I0
tp6734
a((I0
I1
I2
I3
I4
I5
tp6735
I0
tp6736
a((I0
I1
I2
tp6737
I0
tp6738
a((I0
I1
I2
I3
I4
tp6739
I0
tp6740
a((I0
I1
I2
I3
I4
I5
tp6741
I0
tp6742
a((I0
I1
I2
I3
I4
I5
tp6743
I0
tp6744
a((I0
I1
I2
I3
tp6745
I0
tp6746
a((I0
I1
I2
I3
I5
tp6747
I0
tp6748
a((I0
I1
I2
I3
tp6749
I0
tp6750
a((I1
I2
I3
I4
tp6751
I2
tp6752
a((I0
I1
I2
I3
I4
I5
tp6753
I0
tp6754
a((I0
I1
I2
I3
tp6755
I1
tp6756
a((I0
I1
I2
I3
tp6757
I0
tp6758
a((I0
I1
I2
I3
tp6759
I0
tp6760
a((I0
I1
I2
I5
tp6761
I0
tp6762
a((I0
I1
I2
I3
tp6763
I0
tp6764
a((I0
I1
I2
I3
tp6765
I0
tp6766
a((I0
I1
I2
I3
tp6767
I0
tp6768
a((I0
I1
I2
I3
tp6769
I0
tp6770
a((I0
I1
I2
I3
I4
I5
tp6771
I5
tp6772
a((I0
I1
I2
I3
I5
tp6773
I0
tp6774
a((I0
I1
I2
I3
tp6775
I0
tp6776
a((I0
I1
I2
I3
tp6777
I2
tp6778
a((I0
I1
I2
tp6779
I2
tp6780
a((I0
I1
I2
I3
I4
tp6781
I0
tp6782
a((I0
I1
I2
I3
I5
tp6783
I0
tp6784
a((I0
I1
I2
I3
I5
tp6785
I0
tp6786
a((I0
I1
I2
I3
I4
tp6787
I0
tp6788
a((I0
I1
I2
tp6789
I0
tp6790
a((I0
I1
I2
I3
I4
tp6791
I0
tp6792
a((I0
I1
I2
I3
tp6793
I3
tp6794
a((I0
I1
I2
tp6795
I0
tp6796
a((I0
I1
I2
I3
tp6797
I0
tp6798
a((I0
I1
I2
I3
I4
tp6799
I0
tp6800
a((I0
I1
I2
I3
tp6801
I0
tp6802
a((I0
I1
I2
I3
tp6803
I0
tp6804
a((I0
I1
I2
I3
tp6805
I0
tp6806
a((I0
I1
I2
tp6807
I0
tp6808
a((I0
I1
I2
I3
tp6809
I0
tp6810
a((I0
I1
I2
I3
I5
tp6811
I1
tp6812
a((I0
I1
I2
I3
I5
tp6813
I1
tp6814
a((I0
I1
I2
I3
tp6815
I0
tp6816
a((I0
I1
I2
I3
tp6817
I1
tp6818
a((I0
I1
I2
I3
I4
tp6819
I0
tp6820
a((I0
I1
I2
I3
tp6821
I0
tp6822
a((I0
I1
I2
tp6823
I0
tp6824
a((I0
I1
I2
tp6825
I0
tp6826
a((I0
I1
I2
I3
I5
tp6827
I1
tp6828
a((I0
I1
I2
I3
tp6829
I3
tp6830
a((I0
I1
I2
I3
tp6831
I0
tp6832
a((I0
I1
I2
I3
I5
tp6833
I0
tp6834
a((I0
I1
I2
I3
tp6835
I0
tp6836
a((I0
I1
I2
tp6837
I0
tp6838
a((I0
I1
I2
I3
tp6839
I3
tp6840
a((I0
I1
I2
I3
tp6841
I0
tp6842
a((I0
I1
I2
tp6843
I0
tp6844
a((I0
I1
I2
tp6845
I0
tp6846
a((I0
I1
I2
I3
I4
tp6847
I0
tp6848
a((I0
I1
I2
I3
tp6849
I1
tp6850
a((I0
I1
I2
I3
I4
tp6851
I3
tp6852
a((I0
I1
I2
I3
I5
tp6853
I0
tp6854
a((I1
I2
I3
I4
tp6855
I2
tp6856
a((I0
I1
I2
I3
tp6857
I1
tp6858
a((I0
I1
I2
I3
I4
tp6859
I3
tp6860
a((I0
I1
I2
tp6861
I0
tp6862
a((I0
I1
I2
I3
tp6863
I0
tp6864
a((I0
I1
I2
I3
tp6865
I0
tp6866
a((I0
I1
I2
tp6867
I0
tp6868
a((I0
I1
I2
I3
tp6869
I3
tp6870
a((I0
I1
I2
I3
tp6871
I0
tp6872
a((I0
I1
I2
I3
tp6873
I1
tp6874
a((I0
I1
I2
I3
I4
I5
tp6875
I0
tp6876
a((I0
I1
I2
I3
I4
I5
tp6877
I4
tp6878
a((I1
I2
I3
I4
I5
tp6879
I0
tp6880
a((I1
I2
I3
I4
tp6881
I2
tp6882
a((I0
I1
I2
I3
I4
I5
tp6883
I4
tp6884
a((I0
I1
I2
I3
I4
tp6885
I0
tp6886
a((I1
I2
I3
I5
tp6887
I3
tp6888
a((I0
I1
I2
I3
I4
I5
tp6889
I0
tp6890
a((I0
I1
I2
I3
I4
tp6891
I0
tp6892
a((I0
I1
I2
I3
tp6893
I0
tp6894
a((I0
I1
I2
I3
I4
I5
tp6895
I0
tp6896
a((I0
I1
I2
I3
I4
tp6897
I0
tp6898
a((I0
I1
I2
I3
I4
tp6899
I4
tp6900
a((I0
I1
I2
I3
I5
tp6901
I0
tp6902
a((I0
I1
I2
I3
tp6903
I2
tp6904
a((I0
I1
I2
I3
I4
tp6905
I0
tp6906
a((I0
I1
I2
I3
tp6907
I0
tp6908
a((I0
I1
I2
I3
I4
I5
tp6909
I5
tp6910
a((I0
I1
I2
I3
I5
tp6911
I0
tp6912
a((I0
I1
I2
I3
I4
I5
tp6913
I4
tp6914
a((I0
I1
I2
I3
tp6915
I1
tp6916
a((I0
I1
I2
I3
tp6917
I1
tp6918
a((I0
I1
I2
I3
tp6919
I0
tp6920
a((I0
I1
I2
I3
I4
I5
tp6921
I0
tp6922
a((I0
I1
I2
I3
I4
I5
tp6923
I0
tp6924
a((I0
I1
I2
I3
tp6925
I0
tp6926
a((I0
I1
I2
I3
tp6927
I0
tp6928
a((I0
I1
I2
I3
I4
I5
tp6929
I5
tp6930
a((I0
I1
I2
I3
I4
I5
tp6931
I2
tp6932
a((I0
I1
I2
I3
I4
I5
tp6933
I0
tp6934
a((I0
I1
I2
I4
I5
tp6935
I0
tp6936
a((I0
I1
I2
I3
I4
tp6937
I0
tp6938
a((I0
I1
I2
I3
I4
I5
tp6939
I0
tp6940
a((I0
I1
I2
I3
I4
I5
tp6941
I5
tp6942
a((I0
I1
I2
tp6943
I0
tp6944
a((I0
I1
I2
I3
tp6945
I3
tp6946
a((I0
I1
I2
I3
I4
I5
tp6947
I0
tp6948
a((I0
I1
I2
tp6949
I0
tp6950
a((I0
I1
I2
I3
I4
I5
tp6951
I0
tp6952
a((I0
I1
I2
I3
tp6953
I1
tp6954
a((I0
I1
I2
I4
tp6955
I0
tp6956
a((I0
I1
I2
tp6957
I0
tp6958
a((I0
I1
I2
I3
tp6959
I0
tp6960
a((I0
I1
I2
I3
tp6961
I0
tp6962
a((I0
I1
I2
I3
I4
I5
tp6963
I0
tp6964
a((I0
I1
I2
tp6965
I0
tp6966
a((I0
I1
I2
I3
I4
I5
tp6967
I0
tp6968
a((I0
I1
I2
I3
I4
I5
tp6969
I2
tp6970
a((I0
I1
I2
I3
I4
I5
tp6971
I5
tp6972
a((I0
I1
I2
I3
tp6973
I0
tp6974
a((I0
I1
I2
I3
I4
I5
tp6975
I0
tp6976
a((I0
I1
I2
I3
tp6977
I0
tp6978
a((I0
I1
I2
I3
I4
I5
tp6979
I0
tp6980
a((I0
I1
I2
I3
I4
I5
tp6981
I0
tp6982
a((I0
I1
I2
I3
I4
I5
tp6983
I0
tp6984
a((I1
I2
I3
tp6985
I0
tp6986
a((I0
I1
I2
I3
I4
I5
tp6987
I0
tp6988
a((I0
I1
I2
I3
I4
I5
tp6989
I0
tp6990
a((I0
I1
I2
I3
I4
tp6991
I0
tp6992
a((I0
I1
I2
I3
I4
I5
tp6993
I0
tp6994
a((I0
I1
I2
I3
I4
I5
tp6995
I0
tp6996
a((I0
I1
I2
I3
tp6997
I0
tp6998
a((I0
I1
I2
I3
I4
I5
tp6999
I0
tp7000
a((I0
I1
I2
I3
I4
I5
tp7001
I0
tp7002
a((I0
I1
I2
I3
I5
tp7003
I0
tp7004
a((I0
I1
I2
I3
I4
I5
tp7005
I0
tp7006
a((I0
I1
I2
I3
I4
tp7007
I0
tp7008
a((I0
I1
I2
tp7009
I0
tp7010
a((I0
I1
I2
I3
I4
I5
tp7011
I0
tp7012
a((I0
I1
I2
I3
I4
tp7013
I0
tp7014
a((I0
I1
I2
I3
tp7015
I0
tp7016
a((I0
I1
I2
I3
I4
I5
tp7017
I4
tp7018
a((I0
I1
I2
I3
tp7019
I0
tp7020
a((I0
I1
I2
I3
tp7021
I0
tp7022
a((I0
I1
I2
I3
I4
I5
tp7023
I0
tp7024
a((I0
I1
I2
I3
tp7025
I0
tp7026
a((I0
I1
I2
I3
tp7027
I0
tp7028
a((I0
I1
I2
I3
I4
I5
tp7029
I0
tp7030
a((I0
I1
I2
I3
I4
I5
tp7031
I0
tp7032
a((I0
I1
I2
I3
I4
I5
tp7033
I0
tp7034
a((I0
I1
I2
I3
I4
I5
tp7035
I0
tp7036
a((I0
I1
I2
I3
I4
I5
tp7037
I0
tp7038
a((I0
I1
I2
I3
I4
I5
tp7039
I0
tp7040
a((I0
I1
I2
I3
I4
I5
tp7041
I0
tp7042
a((I0
I1
I2
I3
tp7043
I1
tp7044
a((I0
I1
I2
I3
tp7045
I1
tp7046
a((I0
I1
I2
I3
tp7047
I0
tp7048
a((I0
I1
I2
I3
I4
tp7049
I0
tp7050
a((I0
I1
I2
I3
I5
tp7051
I0
tp7052
a((I0
I1
I2
I3
tp7053
I0
tp7054
a((I0
I1
I2
I3
I5
tp7055
I0
tp7056
a((I0
I1
I2
I3
tp7057
I0
tp7058
a((I0
I1
I2
I3
I4
tp7059
I0
tp7060
a((I0
I1
I2
I3
I5
tp7061
I0
tp7062
a((I0
I1
I2
I3
I4
tp7063
I0
tp7064
a((I0
I1
I2
I3
tp7065
I0
tp7066
a((I0
I1
I2
I3
I4
tp7067
I3
tp7068
a((I0
I1
I2
tp7069
I0
tp7070
a((I0
I1
I2
I3
I4
tp7071
I0
tp7072
a((I0
I1
I2
I3
I4
tp7073
I0
tp7074
a((I0
I1
I2
I3
tp7075
I0
tp7076
a((I0
I1
I2
I3
tp7077
I0
tp7078
a((I0
I1
I2
I3
tp7079
I0
tp7080
a((I0
I1
I2
I3
tp7081
I0
tp7082
a((I0
I1
I2
I3
tp7083
I0
tp7084
a((I0
I1
I2
I3
tp7085
I0
tp7086
a((I0
I1
I2
I3
I5
tp7087
I2
tp7088
a((I0
I1
I2
I3
tp7089
I0
tp7090
a((I0
I1
I2
I3
tp7091
I0
tp7092
a((I0
I1
I2
I3
I4
tp7093
I4
tp7094
a((I0
I1
I2
I3
I4
tp7095
I0
tp7096
a((I0
I1
I2
I3
tp7097
I1
tp7098
a((I0
I1
I2
I3
I4
tp7099
I0
tp7100
a((I0
I1
I2
I3
tp7101
I0
tp7102
a((I0
I1
I2
I3
I4
I5
tp7103
I1
tp7104
a((I0
I1
I2
I3
I5
tp7105
I4
tp7106
a((I0
I1
I2
I3
tp7107
I0
tp7108
a((I0
I1
I2
I3
I4
tp7109
I0
tp7110
a((I0
I1
I2
I3
tp7111
I1
tp7112
a((I0
I1
I2
I3
I5
tp7113
I0
tp7114
a((I0
I1
I2
I3
I4
I5
tp7115
I0
tp7116
a((I0
I1
I2
tp7117
I0
tp7118
a((I0
I1
I2
I3
tp7119
I0
tp7120
a((I0
I1
I2
I3
I5
tp7121
I0
tp7122
a((I0
I1
I2
I3
I4
tp7123
I0
tp7124
a((I0
I1
I2
I3
tp7125
I0
tp7126
a((I0
I1
I2
I3
I4
tp7127
I0
tp7128
a((I0
I1
I2
I3
I4
tp7129
I0
tp7130
a((I0
I1
I2
I3
I5
tp7131
I0
tp7132
a((I0
I1
I2
I3
I5
tp7133
I0
tp7134
a((I0
I1
I2
I3
I4
tp7135
I0
tp7136
a((I0
I1
I2
I3
I4
I5
tp7137
I1
tp7138
a((I0
I1
I2
I3
I4
I5
tp7139
I1
tp7140
a((I0
I1
I2
I3
I4
tp7141
I2
tp7142
a((I0
I1
I2
I3
I4
tp7143
I1
tp7144
a((I0
I1
I2
I3
I4
tp7145
I0
tp7146
a((I0
I1
I2
I3
I5
tp7147
I0
tp7148
a((I0
I1
I2
I3
I5
tp7149
I0
tp7150
a((I0
I1
I2
I3
I5
tp7151
I0
tp7152
a((I0
I1
I2
tp7153
I0
tp7154
a((I0
I1
I2
I3
tp7155
I0
tp7156
a((I0
I1
I2
I3
tp7157
I0
tp7158
a((I0
I1
I2
I3
I4
tp7159
I0
tp7160
a((I0
I1
I2
I3
I4
tp7161
I0
tp7162
a((I0
I1
I2
I3
I4
I5
tp7163
I0
tp7164
a((I0
I1
I2
tp7165
I0
tp7166
a((I0
I1
I2
I3
I4
I5
tp7167
I0
tp7168
a((I0
I1
I2
I3
I4
tp7169
I0
tp7170
a((I0
I1
I2
I3
I5
tp7171
I0
tp7172
a((I0
I1
I2
I3
I4
tp7173
I0
tp7174
a((I0
I1
I2
I3
I4
I5
tp7175
I4
tp7176
a((I0
I1
I2
tp7177
I0
tp7178
a((I0
I1
I2
I3
tp7179
I0
tp7180
a((I0
I1
I2
I3
I5
tp7181
I0
tp7182
a((I0
I1
I2
I3
tp7183
I0
tp7184
a((I0
I1
I2
I3
tp7185
I0
tp7186
a((I0
I1
I2
I3
tp7187
I0
tp7188
a((I0
I1
I2
I3
I4
tp7189
I0
tp7190
a((I0
I1
I2
I3
tp7191
I0
tp7192
a((I0
I1
I2
I3
I4
tp7193
I0
tp7194
a((I0
I1
I2
I3
I4
tp7195
I0
tp7196
a((I0
I1
I2
tp7197
I0
tp7198
a((I0
I1
I2
I3
I4
tp7199
I0
tp7200
a((I0
I1
I2
I3
I5
tp7201
I0
tp7202
a((I0
I1
I2
I3
tp7203
I0
tp7204
a((I0
I1
I2
I3
I4
tp7205
I0
tp7206
a((I0
I1
I2
I3
tp7207
I0
tp7208
a((I0
I1
I2
I3
I5
tp7209
I4
tp7210
a((I0
I1
I2
I3
tp7211
I1
tp7212
a((I0
I1
I2
I3
tp7213
I1
tp7214
a((I0
I1
I2
I3
tp7215
I0
tp7216
a((I0
I1
I2
I3
I4
tp7217
I0
tp7218
a((I0
I1
I2
I3
tp7219
I0
tp7220
a((I0
I1
I2
I3
I4
tp7221
I3
tp7222
a((I0
I1
I2
tp7223
I0
tp7224
a((I0
I1
I2
I3
tp7225
I0
tp7226
a((I0
I1
I2
I3
I4
tp7227
I0
tp7228
a((I0
I1
I2
I3
tp7229
I0
tp7230
a((I0
I1
I2
tp7231
I0
tp7232
a((I0
I1
I2
I3
I4
I5
tp7233
I0
tp7234
a((I0
I1
I2
I3
I4
tp7235
I0
tp7236
a((I0
I1
I2
I3
I4
tp7237
I0
tp7238
a((I0
I1
I2
I3
I4
tp7239
I4
tp7240
a((I0
I1
I2
I3
I4
tp7241
I0
tp7242
a((I0
I1
I2
I3
tp7243
I0
tp7244
a((I0
I1
I2
tp7245
I0
tp7246
a((I0
I1
I2
I3
I4
tp7247
I0
tp7248
a((I0
I1
I2
I3
I4
tp7249
I0
tp7250
a((I0
I1
I2
I3
I4
tp7251
I0
tp7252
a((I0
I1
I2
I3
I4
I5
tp7253
I0
tp7254
a((I0
I1
I2
I3
tp7255
I0
tp7256
a((I0
I1
I2
I3
tp7257
I0
tp7258
a((I0
I1
I2
I3
tp7259
I0
tp7260
a((I0
I1
I2
I3
tp7261
I0
tp7262
a((I0
I1
I2
I3
I4
I5
tp7263
I0
tp7264
a((I0
I1
I2
I3
I4
I5
tp7265
I0
tp7266
a((I0
I1
I2
I3
I4
tp7267
I0
tp7268
a((I0
I1
I2
I3
I4
I5
tp7269
I0
tp7270
a((I0
I1
I2
I3
I4
tp7271
I0
tp7272
a((I0
I1
I2
I3
tp7273
I0
tp7274
a((I0
I1
I2
I3
I4
tp7275
I0
tp7276
a((I0
I1
I2
I3
I4
tp7277
I0
tp7278
a((I0
I1
I2
tp7279
I1
tp7280
a((I0
I1
I2
I3
I4
I5
tp7281
I0
tp7282
a((I0
I1
I2
I3
tp7283
I0
tp7284
a((I0
I1
I2
I3
tp7285
I1
tp7286
a((I0
I1
I2
I3
I4
tp7287
I0
tp7288
a((I0
I1
I2
I3
tp7289
I0
tp7290
a((I0
I1
I2
I3
tp7291
I1
tp7292
a((I0
I1
I2
I3
I5
tp7293
I0
tp7294
a((I0
I1
I2
I3
I4
tp7295
I0
tp7296
a((I0
I1
I2
I3
I4
I5
tp7297
I0
tp7298
a((I0
I1
I2
I3
I5
tp7299
I0
tp7300
a((I0
I1
I2
I3
I4
tp7301
I0
tp7302
a((I0
I1
I2
I3
I4
tp7303
I0
tp7304
a((I0
I1
I2
I3
tp7305
I0
tp7306
a((I0
I1
I2
I3
tp7307
I1
tp7308
a((I0
I1
I2
I3
I4
tp7309
I4
tp7310
a((I0
I1
I2
I3
I4
I5
tp7311
I0
tp7312
a((I0
I1
I2
I3
I4
tp7313
I0
tp7314
a((I0
I1
I2
I3
tp7315
I0
tp7316
a((I0
I1
I2
tp7317
I0
tp7318
a((I0
I1
I2
tp7319
I0
tp7320
a((I0
I1
I2
I3
tp7321
I0
tp7322
a((I0
I1
I2
I3
I4
I5
tp7323
I0
tp7324
a((I0
I1
I2
I3
tp7325
I1
tp7326
a((I0
I1
I2
I3
tp7327
I0
tp7328
a((I0
I1
I2
I3
I4
I5
tp7329
I0
tp7330
a((I0
I1
I2
I3
tp7331
I0
tp7332
a((I0
I1
I2
I3
tp7333
I0
tp7334
a((I0
I1
I2
tp7335
I0
tp7336
a((I0
I1
I2
tp7337
I0
tp7338
a((I0
I1
I2
I3
tp7339
I0
tp7340
a((I0
I1
I2
I3
I5
tp7341
I0
tp7342
a((I0
I1
I2
tp7343
I0
tp7344
a((I0
I1
I2
tp7345
I0
tp7346
a((I0
I1
I2
I3
I4
I5
tp7347
I0
tp7348
a((I0
I1
I2
I3
tp7349
I0
tp7350
a((I0
I1
I2
I3
I4
tp7351
I0
tp7352
a((I0
I1
I2
I3
tp7353
I0
tp7354
a((I0
I1
I2
I3
tp7355
I0
tp7356
a((I0
I1
I2
I3
tp7357
I0
tp7358
a((I0
I1
I2
tp7359
I0
tp7360
a((I0
I1
I2
I3
I4
tp7361
I0
tp7362
a((I0
I1
I2
I3
I4
tp7363
I0
tp7364
a((I0
I1
I2
I3
I4
I5
tp7365
I0
tp7366
a((I0
I1
I2
I3
I4
I5
tp7367
I0
tp7368
a((I0
I1
I2
I3
I4
I5
tp7369
I0
tp7370
a((I0
I1
I2
I3
tp7371
I2
tp7372
a((I0
I1
I2
I3
I4
I5
tp7373
I0
tp7374
a((I0
I1
I2
I3
tp7375
I0
tp7376
a((I0
I1
I2
tp7377
I0
tp7378
a((I0
I1
I2
I3
tp7379
I0
tp7380
a((I0
I1
I2
I3
tp7381
I0
tp7382
a((I0
I1
I2
tp7383
I0
tp7384
a((I0
I1
I2
I3
I4
tp7385
I0
tp7386
a((I0
I1
I2
I3
tp7387
I0
tp7388
a((I0
I1
I2
tp7389
I0
tp7390
a((I0
I1
I2
I3
tp7391
I1
tp7392
a((I0
I1
I2
I3
I4
tp7393
I0
tp7394
a((I0
I1
I2
I3
I4
tp7395
I0
tp7396
a((I0
I1
I2
tp7397
I0
tp7398
a((I1
I2
I3
tp7399
I0
tp7400
a((I0
I1
I2
I3
tp7401
I0
tp7402
a((I0
I1
I2
I3
tp7403
I0
tp7404
a((I0
I1
I2
I3
I5
tp7405
I0
tp7406
a((I0
I1
I2
I3
I4
tp7407
I0
tp7408
a((I0
I1
I2
I3
I4
tp7409
I0
tp7410
a((I0
I1
I2
I3
tp7411
I0
tp7412
a((I0
I1
I2
I3
I5
tp7413
I0
tp7414
a((I0
I1
I2
tp7415
I0
tp7416
a((I0
I1
I2
I3
tp7417
I0
tp7418
a((I0
I1
I2
I3
I5
tp7419
I0
tp7420
a((I0
I1
I2
I3
tp7421
I0
tp7422
a((I0
I1
I2
I3
I5
tp7423
I0
tp7424
a((I0
I1
I2
I3
tp7425
I2
tp7426
a((I0
I1
I2
I3
I4
tp7427
I0
tp7428
a((I0
I1
I2
I3
tp7429
I0
tp7430
a((I0
I1
I2
I3
I4
tp7431
I0
tp7432
a((I0
I1
I2
I3
I4
tp7433
I0
tp7434
a((I0
I1
I2
I3
I4
tp7435
I0
tp7436
a((I0
I1
I2
I3
tp7437
I0
tp7438
a((I0
I1
I2
I3
I4
tp7439
I0
tp7440
a((I0
I1
I2
I3
I4
I5
tp7441
I0
tp7442
a((I0
I1
I2
I3
tp7443
I0
tp7444
a((I0
I1
I2
I3
tp7445
I0
tp7446
a((I0
I1
I2
I3
I5
tp7447
I0
tp7448
a((I0
I1
I2
I3
I4
tp7449
I0
tp7450
a((I0
I1
I2
I3
tp7451
I0
tp7452
a((I0
I1
I2
I3
tp7453
I0
tp7454
a((I0
I1
I2
I3
tp7455
I0
tp7456
a((I0
I1
I2
I3
tp7457
I0
tp7458
a((I0
I1
I2
I3
I4
tp7459
I0
tp7460
a((I0
I1
I2
I3
tp7461
I0
tp7462
a((I0
I1
I2
I3
tp7463
I0
tp7464
a((I0
I1
I2
I3
I4
tp7465
I0
tp7466
a((I0
I1
I2
I3
tp7467
I0
tp7468
a((I0
I1
I2
I3
tp7469
I0
tp7470
a((I0
I1
I2
I3
I5
tp7471
I0
tp7472
a((I0
I1
I2
I3
tp7473
I0
tp7474
a((I0
I1
I2
I3
tp7475
I0
tp7476
a((I0
I1
I2
I3
I5
tp7477
I0
tp7478
a((I0
I1
I2
I3
tp7479
I0
tp7480
a((I0
I1
I2
tp7481
I1
tp7482
a((I0
I1
I2
I3
tp7483
I0
tp7484
a((I0
I1
I2
I3
tp7485
I0
tp7486
a((I0
I1
I2
I3
tp7487
I0
tp7488
a((I0
I1
I2
I3
I4
tp7489
I0
tp7490
a((I0
I1
I2
I3
I4
tp7491
I1
tp7492
a((I0
I1
I2
I3
tp7493
I0
tp7494
a((I0
I1
I2
I3
I4
tp7495
I0
tp7496
a((I0
I1
I2
I3
I5
tp7497
I0
tp7498
a((I0
I1
I2
I3
tp7499
I0
tp7500
a((I0
I1
I2
I3
tp7501
I0
tp7502
a((I0
I1
I2
tp7503
I0
tp7504
a((I0
I1
I2
I3
I4
I5
tp7505
I0
tp7506
a((I0
I1
I2
I3
I4
I5
tp7507
I0
tp7508
a((I0
I1
I2
I3
I4
tp7509
I0
tp7510
a((I0
I1
I2
I3
I4
tp7511
I0
tp7512
a((I0
I1
I2
I3
tp7513
I0
tp7514
a((I0
I1
I2
I3
tp7515
I0
tp7516
a((I0
I1
I2
I3
I4
tp7517
I0
tp7518
a((I0
I1
I2
I3
I4
tp7519
I0
tp7520
a((I0
I1
I2
I3
I5
tp7521
I0
tp7522
a((I0
I1
I2
I3
I4
I5
tp7523
I0
tp7524
a((I0
I1
I2
I3
I4
I5
tp7525
I0
tp7526
a((I1
I2
I3
tp7527
I2
tp7528
a((I0
I1
I2
I3
tp7529
I0
tp7530
a((I0
I1
I2
I3
tp7531
I0
tp7532
a((I0
I1
I2
I3
tp7533
I0
tp7534
a((I0
I1
I2
I3
I4
tp7535
I1
tp7536
a((I0
I1
I2
I3
I4
tp7537
I0
tp7538
a((I0
I1
I2
I3
I4
tp7539
I0
tp7540
a((I0
I1
I2
I3
tp7541
I0
tp7542
a((I1
I2
I3
I4
tp7543
I3
tp7544
a((I0
I1
I2
I3
tp7545
I0
tp7546
a((I0
I1
I2
I3
tp7547
I0
tp7548
a((I0
I1
I2
I3
I4
tp7549
I0
tp7550
a((I0
I1
I2
I3
I4
tp7551
I0
tp7552
a((I0
I1
I2
tp7553
I0
tp7554
a((I1
I2
I3
I5
tp7555
I3
tp7556
a((I0
I1
I2
I3
I5
tp7557
I0
tp7558
a((I0
I1
I2
I3
I5
tp7559
I0
tp7560
a((I0
I1
I2
I3
tp7561
I0
tp7562
a((I0
I1
I2
I3
I4
tp7563
I0
tp7564
a((I0
I1
I2
I3
tp7565
I0
tp7566
a((I0
I1
I2
I3
I4
tp7567
I0
tp7568
a((I0
I1
I2
I3
I4
tp7569
I0
tp7570
a((I0
I1
I2
I3
tp7571
I0
tp7572
a((I0
I1
I2
I3
I4
tp7573
I0
tp7574
a((I0
I1
I2
I3
I4
tp7575
I1
tp7576
a((I0
I1
I2
I3
I4
tp7577
I1
tp7578
a((I0
I1
I2
I3
tp7579
I1
tp7580
a((I0
I1
I2
I3
tp7581
I0
tp7582
a((I0
I1
I2
I3
I4
I5
tp7583
I0
tp7584
a((I0
I1
I2
I3
tp7585
I0
tp7586
a((I0
I1
I2
I3
I4
tp7587
I0
tp7588
a((I0
I1
I2
I3
tp7589
I0
tp7590
a((I0
I1
I2
I3
I4
I5
tp7591
I0
tp7592
a((I0
I1
I2
I3
I4
tp7593
I0
tp7594
a((I0
I1
I2
I3
I4
tp7595
I0
tp7596
a((I0
I1
I2
I3
I5
tp7597
I0
tp7598
a((I0
I1
I2
I3
I5
tp7599
I0
tp7600
a((I0
I1
I2
I3
tp7601
I2
tp7602
a((I0
I1
I2
I3
tp7603
I2
tp7604
a((I0
I1
I2
I3
tp7605
I2
tp7606
a((I0
I1
I2
I3
tp7607
I0
tp7608
a((I0
I1
I2
I3
tp7609
I0
tp7610
a((I0
I1
I2
I3
I4
I5
tp7611
I2
tp7612
a((I0
I1
I2
I3
tp7613
I0
tp7614
a((I0
I1
I2
tp7615
I0
tp7616
a((I0
I1
I2
I3
I4
tp7617
I0
tp7618
a((I0
I1
I2
I3
I4
tp7619
I0
tp7620
a((I0
I1
I2
I3
I4
tp7621
I0
tp7622
a((I0
I1
I2
I3
tp7623
I0
tp7624
a((I0
I1
I2
I3
I4
I5
tp7625
I0
tp7626
a((I0
I1
I2
tp7627
I0
tp7628
a((I0
I1
I2
I3
I5
tp7629
I0
tp7630
a((I0
I1
I2
I3
I4
tp7631
I0
tp7632
a((I0
I1
I2
I3
I4
tp7633
I0
tp7634
a((I0
I1
I2
tp7635
I0
tp7636
a((I0
I1
I2
I3
I4
I5
tp7637
I0
tp7638
a((I0
I1
I2
I3
tp7639
I0
tp7640
a((I0
I1
I2
I3
tp7641
I0
tp7642
a((I0
I1
I2
I3
tp7643
I0
tp7644
a((I0
I1
I2
I3
tp7645
I0
tp7646
a((I0
I1
I2
tp7647
I0
tp7648
a((I0
I1
I2
I3
I4
tp7649
I0
tp7650
a((I0
I1
I2
I3
I4
tp7651
I0
tp7652
a((I0
I1
I2
I3
I5
tp7653
I0
tp7654
a((I0
I1
I2
I3
I4
I5
tp7655
I0
tp7656
a((I0
I1
I2
I3
I4
tp7657
I0
tp7658
a((I0
I1
I2
I3
I4
tp7659
I0
tp7660
a((I0
I1
I2
I3
I4
tp7661
I0
tp7662
a((I0
I1
I2
I3
I4
tp7663
I0
tp7664
a((I0
I1
I2
I3
tp7665
I0
tp7666
a((I0
I1
I2
I3
I5
tp7667
I4
tp7668
a((I0
I1
I2
I3
tp7669
I0
tp7670
a((I0
I1
I2
I3
tp7671
I0
tp7672
a((I0
I1
I2
I3
I4
I5
tp7673
I0
tp7674
a((I0
I1
I2
I3
I4
I5
tp7675
I0
tp7676
a((I0
I1
I2
I3
I5
tp7677
I0
tp7678
a((I0
I1
I2
I3
tp7679
I0
tp7680
a((I0
I1
I2
I3
tp7681
I0
tp7682
a((I0
I1
I2
I3
I4
tp7683
I0
tp7684
a((I0
I1
I2
I3
I4
tp7685
I0
tp7686
a((I0
I1
I2
tp7687
I2
tp7688
a((I0
I1
I2
tp7689
I2
tp7690
a((I0
I1
I2
I3
I5
tp7691
I4
tp7692
a((I0
I1
I2
I3
tp7693
I0
tp7694
a((I0
I1
I2
I3
I4
tp7695
I0
tp7696
a((I0
I1
I2
I3
tp7697
I0
tp7698
a((I0
I1
I2
I3
tp7699
I0
tp7700
a((I0
I1
I2
I3
I4
I5
tp7701
I1
tp7702
a((I0
I1
I2
tp7703
I0
tp7704
a((I0
I1
I2
I3
I4
tp7705
I0
tp7706
a((I0
I1
I2
I3
tp7707
I0
tp7708
a((I0
I1
I2
I3
tp7709
I0
tp7710
a((I0
I1
I2
I3
I4
tp7711
I0
tp7712
a((I0
I1
I2
I3
I4
I5
tp7713
I0
tp7714
a((I0
I1
I2
I3
I4
tp7715
I0
tp7716
a((I0
I1
I2
I3
tp7717
I0
tp7718
a((I0
I1
I2
I3
I4
tp7719
I0
tp7720
a((I0
I1
I2
I3
tp7721
I0
tp7722
a((I0
I1
I2
I3
I4
tp7723
I0
tp7724
a((I0
I1
I2
I3
I4
tp7725
I0
tp7726
a((I0
I1
I2
I3
I4
tp7727
I0
tp7728
a((I0
I1
I2
I3
tp7729
I0
tp7730
a((I0
I1
I2
tp7731
I0
tp7732
a((I0
I1
I2
I3
tp7733
I0
tp7734
a((I0
I1
I2
I3
tp7735
I0
tp7736
a((I0
I1
I2
I3
I5
tp7737
I3
tp7738
a((I0
I1
I2
I3
I5
tp7739
I0
tp7740
a((I0
I1
I2
I3
tp7741
I1
tp7742
a((I0
I1
I2
I3
I5
tp7743
I0
tp7744
a((I0
I1
I2
I3
tp7745
I0
tp7746
a((I0
I1
I2
I3
I4
I5
tp7747
I3
tp7748
a((I0
I1
I2
I3
I4
tp7749
I0
tp7750
a((I0
I1
I2
I3
I4
tp7751
I0
tp7752
a((I0
I1
I2
I3
I4
tp7753
I0
tp7754
a((I0
I1
I2
I3
I4
tp7755
I0
tp7756
a((I0
I1
I2
I3
I4
tp7757
I1
tp7758
a((I1
I2
I3
I5
tp7759
I0
tp7760
a((I0
I1
I2
tp7761
I0
tp7762
a((I0
I1
I2
I3
tp7763
I0
tp7764
a((I0
I1
I2
I3
I4
tp7765
I0
tp7766
a((I0
I1
I2
I3
I4
tp7767
I0
tp7768
a((I0
I1
I2
I3
tp7769
I1
tp7770
a((I0
I1
I2
tp7771
I1
tp7772
a((I0
I1
I2
I4
tp7773
I0
tp7774
a((I0
I1
I2
I3
I4
tp7775
I0
tp7776
a((I0
I1
I2
I3
I4
tp7777
I0
tp7778
a((I0
I1
I2
I3
tp7779
I0
tp7780
a((I0
I1
I2
I3
I4
tp7781
I0
tp7782
a((I0
I1
I2
I3
I4
tp7783
I0
tp7784
a((I0
I1
I2
I3
I4
tp7785
I0
tp7786
a((I0
I1
I2
tp7787
I1
tp7788
a((I0
I1
I2
I3
I4
tp7789
I2
tp7790
a((I0
I1
I2
I3
I5
tp7791
I0
tp7792
a((I0
I1
I2
I3
I4
I5
tp7793
I0
tp7794
a((I0
I1
I2
tp7795
I0
tp7796
a((I0
I1
I2
I3
tp7797
I0
tp7798
a((I0
I1
I2
I3
I4
tp7799
I0
tp7800
a((I0
I1
I2
I3
tp7801
I0
tp7802
a((I0
I1
I2
I3
tp7803
I1
tp7804
a((I0
I1
I2
I3
I4
tp7805
I0
tp7806
a((I0
I1
I2
I3
I4
tp7807
I2
tp7808
a((I0
I1
I2
I3
I4
tp7809
I0
tp7810
a((I0
I1
I2
I3
tp7811
I0
tp7812
a((I0
I1
I2
I3
I4
tp7813
I2
tp7814
a((I0
I1
I2
tp7815
I0
tp7816
a((I0
I1
I2
I3
I4
I5
tp7817
I0
tp7818
a((I0
I1
I2
I3
I4
tp7819
I0
tp7820
a((I0
I1
I2
tp7821
I0
tp7822
a((I0
I1
I2
I3
tp7823
I0
tp7824
a((I0
I1
I2
I3
tp7825
I0
tp7826
a((I0
I1
I2
I3
I4
tp7827
I0
tp7828
a((I0
I1
I2
I3
tp7829
I1
tp7830
a((I0
I1
I2
I3
tp7831
I1
tp7832
a((I0
I1
I2
I3
I4
tp7833
I0
tp7834
a((I0
I1
I2
I3
tp7835
I0
tp7836
a((I0
I1
I2
I3
I4
tp7837
I0
tp7838
a((I0
I1
I2
tp7839
I0
tp7840
a((I0
I1
I2
I3
I4
tp7841
I0
tp7842
a((I0
I1
I2
I3
I4
tp7843
I0
tp7844
a((I0
I1
I2
I3
I4
I5
tp7845
I0
tp7846
a((I0
I1
I2
tp7847
I0
tp7848
a((I0
I1
I2
I3
tp7849
I0
tp7850
a((I0
I1
I2
I3
I4
I5
tp7851
I5
tp7852
a((I0
I1
I2
I3
I4
I5
tp7853
I0
tp7854
a((I0
I1
I2
I3
tp7855
I0
tp7856
a((I0
I1
I2
I3
tp7857
I0
tp7858
a((I0
I1
I2
I3
tp7859
I0
tp7860
a((I0
I1
I2
tp7861
I0
tp7862
a((I0
I1
I2
I3
I4
tp7863
I1
tp7864
a((I0
I1
I2
I3
I4
tp7865
I0
tp7866
a((I0
I1
I2
I3
tp7867
I1
tp7868
a((I0
I1
I2
I3
tp7869
I0
tp7870
a((I0
I1
I2
I3
tp7871
I0
tp7872
a((I0
I1
I2
I3
I4
tp7873
I0
tp7874
a((I0
I1
I2
I3
I4
tp7875
I0
tp7876
a((I0
I1
I2
tp7877
I0
tp7878
a((I0
I1
I2
tp7879
I0
tp7880
a((I0
I1
I2
I3
I4
tp7881
I0
tp7882
a((I0
I1
I2
I3
I4
tp7883
I0
tp7884
a((I0
I1
I2
tp7885
I0
tp7886
a((I0
I1
I2
I3
tp7887
I0
tp7888
a((I0
I1
I2
tp7889
I0
tp7890
a((I0
I1
I2
I3
tp7891
I0
tp7892
a((I0
I1
I2
I3
tp7893
I0
tp7894
a((I0
I1
I2
I3
tp7895
I0
tp7896
a((I0
I1
I2
I3
I4
tp7897
I0
tp7898
a((I0
I1
I2
I3
I5
tp7899
I0
tp7900
a((I0
I1
I2
I3
I5
tp7901
I4
tp7902
a((I0
I1
I2
I3
I4
tp7903
I0
tp7904
a((I0
I1
I2
I3
tp7905
I0
tp7906
a((I0
I1
I2
I3
tp7907
I0
tp7908
a((I0
I1
I2
I3
I4
I5
tp7909
I0
tp7910
a((I0
I1
I2
tp7911
I0
tp7912
a((I0
I1
I2
I3
I4
tp7913
I0
tp7914
a((I0
I1
I2
I3
tp7915
I0
tp7916
a((I0
I1
I2
I3
tp7917
I0
tp7918
a((I0
I1
I2
I3
tp7919
I0
tp7920
a((I0
I1
I2
I3
tp7921
I0
tp7922
a((I0
I1
I2
I3
tp7923
I0
tp7924
a((I0
I1
I2
I3
I4
tp7925
I0
tp7926
a((I0
I1
I2
I3
I4
I5
tp7927
I0
tp7928
a((I0
I1
I2
I3
tp7929
I3
tp7930
a((I0
I1
I2
I3
tp7931
I0
tp7932
a((I0
I1
I2
I3
tp7933
I0
tp7934
a((I0
I1
I2
I3
tp7935
I0
tp7936
a((I0
I1
I2
I3
I4
tp7937
I0
tp7938
a((I0
I1
I2
tp7939
I0
tp7940
a((I0
I1
I2
I3
I4
I5
tp7941
I2
tp7942
a((I0
I1
I2
tp7943
I0
tp7944
a((I0
I1
I2
I3
tp7945
I1
tp7946
a((I0
I1
I2
I3
tp7947
I0
tp7948
a((I0
I1
I2
I3
I5
tp7949
I0
tp7950
a((I0
I1
I2
tp7951
I0
tp7952
a((I0
I1
I2
I3
tp7953
I0
tp7954
a((I0
I1
I2
I3
tp7955
I0
tp7956
a((I0
I1
I2
I3
tp7957
I0
tp7958
a((I0
I1
I2
I3
I4
tp7959
I0
tp7960
a((I0
I1
I2
I3
I4
tp7961
I0
tp7962
a((I0
I1
I2
I3
tp7963
I0
tp7964
a((I0
I1
I2
I3
I4
I5
tp7965
I0
tp7966
a((I0
I1
I2
I3
I4
I5
tp7967
I1
tp7968
a((I0
I1
I2
tp7969
I0
tp7970
a((I0
I1
I2
I3
I5
tp7971
I0
tp7972
a((I0
I1
I2
I3
tp7973
I0
tp7974
a((I1
I2
I3
I4
I5
tp7975
I2
tp7976
a((I0
I1
I2
I3
tp7977
I0
tp7978
a((I0
I1
I2
I3
tp7979
I0
tp7980
a((I1
I2
I3
tp7981
I0
tp7982
a((I0
I1
I2
I3
tp7983
I0
tp7984
a((I0
I1
I2
I3
tp7985
I0
tp7986
a((I0
I1
I2
I3
I4
I5
tp7987
I0
tp7988
a((I0
I1
I2
I3
I4
I5
tp7989
I0
tp7990
a((I0
I1
I2
I3
I4
tp7991
I0
tp7992
a((I0
I1
I2
I3
I4
tp7993
I0
tp7994
a((I0
I1
I2
I3
I4
I5
tp7995
I0
tp7996
a((I0
I1
I2
I3
tp7997
I0
tp7998
a((I0
I1
I2
I3
tp7999
I0
tp8000
a((I0
I1
I2
tp8001
I0
tp8002
a((I0
I1
I2
I3
I5
tp8003
I0
tp8004
a((I0
I1
I2
tp8005
I0
tp8006
a((I0
I1
I2
I3
I4
tp8007
I0
tp8008
a((I0
I1
I2
tp8009
I0
tp8010
a((I0
I1
I2
I3
tp8011
I0
tp8012
a((I0
I1
I2
I3
I5
tp8013
I0
tp8014
a((I0
I1
I2
I3
I4
tp8015
I0
tp8016
a((I0
I1
I2
I3
I4
I5
tp8017
I0
tp8018
a((I0
I1
I2
I3
I5
tp8019
I0
tp8020
a((I0
I1
I2
I3
I5
tp8021
I1
tp8022
a((I0
I1
I2
I3
I5
tp8023
I0
tp8024
a((I0
I1
I2
I3
I4
tp8025
I0
tp8026
a((I1
I2
I3
tp8027
I2
tp8028
a((I1
I2
I3
I5
tp8029
I2
tp8030
a((I0
I1
I2
I3
I5
tp8031
I0
tp8032
a((I0
I1
I2
I3
tp8033
I0
tp8034
a((I0
I1
I2
I3
tp8035
I0
tp8036
a((I0
I1
I2
I3
I4
tp8037
I0
tp8038
a((I0
I1
I2
I3
I4
tp8039
I0
tp8040
a((I0
I1
I2
I3
I4
tp8041
I0
tp8042
a((I0
I1
I2
I3
I4
tp8043
I0
tp8044
a((I0
I1
I2
tp8045
I1
tp8046
a((I0
I1
I2
tp8047
I1
tp8048
a((I0
I1
I2
I3
tp8049
I0
tp8050
a((I1
I2
I3
tp8051
I0
tp8052
a((I0
I1
I2
I3
I5
tp8053
I4
tp8054
a((I0
I1
I2
I3
I4
tp8055
I0
tp8056
a((I0
I1
I2
I3
tp8057
I0
tp8058
a((I0
I1
I2
I3
I5
tp8059
I0
tp8060
a((I0
I1
I2
I3
tp8061
I0
tp8062
a((I0
I1
I2
I3
I5
tp8063
I0
tp8064
a((I0
I1
I2
I3
tp8065
I0
tp8066
a((I0
I1
I2
I3
tp8067
I0
tp8068
a((I0
I1
I2
I3
tp8069
I0
tp8070
a((I0
I1
I2
I3
tp8071
I0
tp8072
a((I0
I1
I2
I3
tp8073
I0
tp8074
a((I0
I1
I2
I3
tp8075
I0
tp8076
a((I0
I1
I2
I3
I5
tp8077
I0
tp8078
a((I0
I1
I2
I3
I5
tp8079
I0
tp8080
a((I0
I1
I2
I3
I4
tp8081
I3
tp8082
a((I0
I1
I2
I3
I4
tp8083
I0
tp8084
a((I1
I2
I3
I4
tp8085
I2
tp8086
a((I0
I1
I2
I3
tp8087
I0
tp8088
a((I0
I1
I2
I3
tp8089
I0
tp8090
a((I0
I1
I2
I3
tp8091
I0
tp8092
a((I0
I1
I2
I3
tp8093
I0
tp8094
a((I0
I1
I2
I3
tp8095
I0
tp8096
a((I0
I1
I2
I3
tp8097
I1
tp8098
a((I0
I1
I2
I3
I4
I5
tp8099
I2
tp8100
a((I0
I1
I2
I3
I4
I5
tp8101
I2
tp8102
a((I0
I1
I2
I3
I5
tp8103
I0
tp8104
a((I0
I1
I2
I3
I4
tp8105
I0
tp8106
a((I0
I1
I2
I3
I4
tp8107
I0
tp8108
a((I0
I1
I2
I3
I5
tp8109
I0
tp8110
a((I0
I1
I2
I3
tp8111
I0
tp8112
a((I0
I1
I2
tp8113
I0
tp8114
a((I0
I1
I2
I3
I4
tp8115
I0
tp8116
a((I0
I1
I2
I3
I4
I5
tp8117
I5
tp8118
a((I0
I1
I2
tp8119
I0
tp8120
a((I0
I1
I2
I3
I5
tp8121
I0
tp8122
a((I0
I1
I2
I3
tp8123
I0
tp8124
a((I0
I1
I2
I3
tp8125
I3
tp8126
a((I0
I1
I2
I3
tp8127
I0
tp8128
a((I0
I1
I2
I3
I4
tp8129
I0
tp8130
a((I0
I1
I2
I3
tp8131
I1
tp8132
a((I0
I1
I2
I3
tp8133
I0
tp8134
a((I0
I1
I2
tp8135
I0
tp8136
a((I0
I1
I2
I3
I4
tp8137
I0
tp8138
a((I0
I1
I2
tp8139
I0
tp8140
a((I0
I1
I2
I3
tp8141
I0
tp8142
a((I0
I1
I2
I3
tp8143
I0
tp8144
a((I0
I1
I2
tp8145
I0
tp8146
a((I0
I1
I2
tp8147
I0
tp8148
a((I0
I1
I2
I3
tp8149
I0
tp8150
a((I0
I1
I2
I3
tp8151
I0
tp8152
a((I0
I1
I2
I3
tp8153
I0
tp8154
a((I0
I1
I2
I3
I4
tp8155
I0
tp8156
a((I0
I1
I2
I3
tp8157
I0
tp8158
a((I0
I1
I2
I3
tp8159
I0
tp8160
a((I0
I1
I2
I3
I4
tp8161
I0
tp8162
a((I0
I1
I2
I3
I4
tp8163
I0
tp8164
a((I0
I1
I2
I3
I4
I5
tp8165
I0
tp8166
a((I0
I1
I2
I3
tp8167
I0
tp8168
a((I0
I1
I2
tp8169
I0
tp8170
a((I0
I1
I2
I3
tp8171
I1
tp8172
a((I0
I1
I2
I3
tp8173
I1
tp8174
a((I0
I1
I2
I3
I4
tp8175
I0
tp8176
a((I0
I1
I2
I3
tp8177
I0
tp8178
a((I0
I1
I2
I3
I4
I5
tp8179
I0
tp8180
a((I0
I1
I2
I3
I4
tp8181
I0
tp8182
a((I0
I1
I2
tp8183
I0
tp8184
a((I0
I1
I2
I3
I4
tp8185
I0
tp8186
a((I0
I1
I2
I3
I4
tp8187
I1
tp8188
a((I0
I1
I2
I3
I4
tp8189
I1
tp8190
a((I0
I1
I2
I3
I4
tp8191
I0
tp8192
a((I0
I1
I2
I3
I4
tp8193
I0
tp8194
a((I0
I1
I2
I3
tp8195
I0
tp8196
a((I0
I1
I2
tp8197
I0
tp8198
a((I0
I1
I2
I3
I4
I5
tp8199
I0
tp8200
a((I0
I1
I2
I3
tp8201
I0
tp8202
a((I0
I1
I2
I3
tp8203
I0
tp8204
a((I0
I1
I2
I3
I4
tp8205
I0
tp8206
a((I1
I2
I3
I4
I5
tp8207
I3
tp8208
a((I0
I1
I2
I3
I4
tp8209
I1
tp8210
a((I0
I1
I2
I3
tp8211
I1
tp8212
a((I0
I1
I2
I3
I5
tp8213
I4
tp8214
a((I0
I1
I2
I3
tp8215
I0
tp8216
a((I0
I1
I2
I3
I4
tp8217
I0
tp8218
a((I0
I1
I2
I3
tp8219
I0
tp8220
a((I0
I1
I2
tp8221
I0
tp8222
a((I0
I1
I2
I3
tp8223
I0
tp8224
a((I0
I1
I2
I3
tp8225
I0
tp8226
a((I0
I1
I2
I3
I5
tp8227
I0
tp8228
a((I0
I1
I2
I3
tp8229
I0
tp8230
a((I0
I1
I2
I3
tp8231
I0
tp8232
a((I0
I1
I2
tp8233
I0
tp8234
a((I0
I1
I2
I3
tp8235
I0
tp8236
a((I0
I1
I2
I3
I4
tp8237
I0
tp8238
a((I0
I1
I2
I3
I4
I5
tp8239
I0
tp8240
a((I0
I1
I2
I3
tp8241
I0
tp8242
a((I0
I1
I2
I3
I4
tp8243
I0
tp8244
a((I0
I1
I2
I3
I4
tp8245
I3
tp8246
a((I0
I1
I2
I3
I4
tp8247
I0
tp8248
a((I0
I1
I2
I3
I4
tp8249
I0
tp8250
a((I0
I1
I2
I3
I4
tp8251
I0
tp8252
a((I0
I1
I2
I3
I4
tp8253
I0
tp8254
a((I0
I1
I2
tp8255
I0
tp8256
a((I0
I1
I2
I3
tp8257
I1
tp8258
a((I0
I1
I2
I3
tp8259
I1
tp8260
a((I0
I1
I2
I3
tp8261
I0
tp8262
a((I0
I1
I2
I3
tp8263
I0
tp8264
a((I0
I1
I2
tp8265
I0
tp8266
a((I0
I1
I2
I3
tp8267
I0
tp8268
a((I0
I1
I2
I3
I4
tp8269
I0
tp8270
a((I0
I1
I2
I3
tp8271
I0
tp8272
a((I0
I1
I2
I3
I4
tp8273
I0
tp8274
a((I0
I1
I2
I3
I4
tp8275
I0
tp8276
a((I0
I1
I2
I3
I4
tp8277
I0
tp8278
a((I0
I1
I2
I3
I4
I5
tp8279
I1
tp8280
a((I0
I1
I2
I3
tp8281
I1
tp8282
a((I0
I1
I2
I3
tp8283
I0
tp8284
a((I0
I1
I2
I3
tp8285
I0
tp8286
a((I0
I1
I2
I3
tp8287
I0
tp8288
a((I0
I1
I2
I3
I4
I5
tp8289
I0
tp8290
a((I0
I1
I2
I3
tp8291
I1
tp8292
a((I0
I1
I2
I3
I4
tp8293
I0
tp8294
a((I0
I1
I2
I3
tp8295
I1
tp8296
a((I0
I1
I2
I3
I4
tp8297
I2
tp8298
a((I0
I1
I2
I3
I4
tp8299
I0
tp8300
a((I0
I1
I2
I3
I4
I5
tp8301
I0
tp8302
a((I0
I1
I2
tp8303
I0
tp8304
a((I0
I1
I2
I3
I4
tp8305
I0
tp8306
a((I0
I1
I2
I3
I5
tp8307
I0
tp8308
a((I0
I1
I2
I3
I4
tp8309
I0
tp8310
a((I0
I1
I2
I3
I4
tp8311
I0
tp8312
a((I0
I1
I2
I3
I4
tp8313
I0
tp8314
a((I0
I1
I2
I3
tp8315
I0
tp8316
a((I0
I1
I2
I3
tp8317
I0
tp8318
a((I0
I1
I2
I3
I5
tp8319
I0
tp8320
a((I0
I1
I2
I3
I4
tp8321
I0
tp8322
a((I0
I1
I2
I3
I4
tp8323
I0
tp8324
a((I0
I1
I2
I3
tp8325
I0
tp8326
a((I0
I1
I2
I3
tp8327
I0
tp8328
a((I0
I1
I2
I3
I4
tp8329
I0
tp8330
a((I0
I1
I2
I3
I4
I5
tp8331
I0
tp8332
a((I0
I1
I2
I3
I4
tp8333
I0
tp8334
a((I0
I1
I2
I3
I4
tp8335
I0
tp8336
a((I0
I1
I2
I3
I4
tp8337
I1
tp8338
a((I0
I1
I2
tp8339
I0
tp8340
a((I0
I1
I2
I3
tp8341
I0
tp8342
a((I0
I1
I2
I3
tp8343
I0
tp8344
a((I0
I1
I2
I3
I4
tp8345
I0
tp8346
a((I0
I1
I2
I3
I4
I5
tp8347
I0
tp8348
a((I0
I1
I2
I3
tp8349
I0
tp8350
a((I0
I1
I2
I3
tp8351
I0
tp8352
a((I0
I1
I2
I3
tp8353
I0
tp8354
a((I0
I1
I2
I3
I4
I5
tp8355
I5
tp8356
a((I0
I1
I2
I3
I4
tp8357
I0
tp8358
a((I0
I1
I2
I3
I5
tp8359
I0
tp8360
a((I0
I1
I2
I3
I4
tp8361
I0
tp8362
a((I0
I1
I2
I3
I4
tp8363
I0
tp8364
a((I0
I1
I2
I3
tp8365
I0
tp8366
a((I0
I1
I2
I3
I5
tp8367
I0
tp8368
a((I0
I1
I2
I3
I4
tp8369
I0
tp8370
a((I0
I1
I2
I3
I4
tp8371
I0
tp8372
a((I0
I1
I2
I3
tp8373
I0
tp8374
a((I0
I1
I2
I3
I4
tp8375
I1
tp8376
a((I0
I1
I2
tp8377
I0
tp8378
a((I0
I1
I2
I3
I4
tp8379
I0
tp8380
a((I0
I1
I2
I3
I4
tp8381
I0
tp8382
a((I0
I1
I2
I3
I4
tp8383
I0
tp8384
a((I1
I2
I3
I5
tp8385
I0
tp8386
a((I0
I1
I2
I3
tp8387
I0
tp8388
a((I0
I1
I2
I3
tp8389
I0
tp8390
a((I0
I1
I2
tp8391
I0
tp8392
a((I0
I1
I2
tp8393
I1
tp8394
a((I0
I1
I2
I3
I4
tp8395
I0
tp8396
a((I0
I1
I2
I3
I4
tp8397
I1
tp8398
a((I0
I1
I2
I3
tp8399
I0
tp8400
a((I0
I1
I2
I3
I5
tp8401
I0
tp8402
a((I0
I1
I2
tp8403
I0
tp8404
a((I0
I1
I2
I3
I4
tp8405
I0
tp8406
a((I0
I1
I2
tp8407
I0
tp8408
a((I0
I1
I2
I3
I4
tp8409
I0
tp8410
a((I0
I1
I2
I3
I4
tp8411
I0
tp8412
a((I0
I1
I2
I3
tp8413
I1
tp8414
a((I0
I1
I2
I3
tp8415
I0
tp8416
a((I0
I1
I2
I4
tp8417
I0
tp8418
a((I0
I1
I2
tp8419
I0
tp8420
a((I0
I1
I2
tp8421
I0
tp8422
a((I0
I1
I2
tp8423
I0
tp8424
a((I0
I1
I2
tp8425
I0
tp8426
a((I0
I1
I2
I3
I4
I5
tp8427
I4
tp8428
a((I0
I1
I2
I3
tp8429
I0
tp8430
a((I0
I1
I2
I3
tp8431
I0
tp8432
a((I0
I1
I2
I3
I4
I5
tp8433
I0
tp8434
a((I0
I1
I2
I3
I4
tp8435
I0
tp8436
a((I0
I1
I2
I3
I4
tp8437
I0
tp8438
a((I0
I1
I2
tp8439
I0
tp8440
a((I0
I1
I2
I3
tp8441
I0
tp8442
a((I0
I1
I2
I3
tp8443
I0
tp8444
a((I0
I1
I2
I3
I4
tp8445
I0
tp8446
a((I0
I1
I2
I3
I4
I5
tp8447
I1
tp8448
a((I0
I1
I2
I3
I4
tp8449
I0
tp8450
a((I0
I1
I2
I3
I4
I5
tp8451
I1
tp8452
a((I0
I1
I2
I3
I4
tp8453
I0
tp8454
a((I0
I1
I2
I3
I4
tp8455
I0
tp8456
a((I0
I1
I2
tp8457
I0
tp8458
a((I0
I1
I2
I3
I4
tp8459
I0
tp8460
a((I0
I1
I2
I3
I4
tp8461
I0
tp8462
a((I0
I1
I2
I3
tp8463
I0
tp8464
a((I0
I1
I2
I3
tp8465
I0
tp8466
a((I0
I1
I2
I3
tp8467
I0
tp8468
a((I0
I1
I2
I3
tp8469
I0
tp8470
a((I0
I1
I2
I3
I4
tp8471
I0
tp8472
a((I0
I1
I2
I3
I5
tp8473
I2
tp8474
a((I0
I1
I2
I3
I5
tp8475
I2
tp8476
a((I0
I1
I2
I3
I5
tp8477
I2
tp8478
a((I1
I2
I3
tp8479
I0
tp8480
a((I0
I1
I2
tp8481
I0
tp8482
a((I0
I1
I2
I3
I4
tp8483
I0
tp8484
a((I0
I1
I2
I3
I4
tp8485
I0
tp8486
a((I0
I1
I2
I3
tp8487
I0
tp8488
a((I0
I1
I2
I3
I4
I5
tp8489
I1
tp8490
a((I0
I1
I2
I3
I4
I5
tp8491
I1
tp8492
a((I0
I1
I2
I3
I4
I5
tp8493
I1
tp8494
a((I0
I1
I2
I3
tp8495
I0
tp8496
a((I0
I1
I2
I3
tp8497
I0
tp8498
a((I0
I1
I2
I3
I4
I5
tp8499
I0
tp8500
a((I0
I1
I2
I3
tp8501
I3
tp8502
a((I0
I1
I2
I3
I4
I5
tp8503
I0
tp8504
a((I0
I1
I2
I3
I4
tp8505
I0
tp8506
a((I0
I1
I2
I3
I4
tp8507
I0
tp8508
a((I0
I1
I2
I3
I4
I5
tp8509
I0
tp8510
a((I0
I1
I2
I3
I4
tp8511
I0
tp8512
a((I0
I1
I2
I3
I4
I5
tp8513
I0
tp8514
a((I0
I1
I2
I3
I4
tp8515
I0
tp8516
a((I0
I1
I2
I3
I4
I5
tp8517
I0
tp8518
a((I0
I1
I2
I3
tp8519
I0
tp8520
a((I0
I1
I2
I3
tp8521
I0
tp8522
a((I0
I1
I2
I3
I4
tp8523
I0
tp8524
a((I0
I1
I2
I3
I4
I5
tp8525
I5
tp8526
a((I0
I1
I2
I3
I4
tp8527
I0
tp8528
a((I0
I1
I2
I3
tp8529
I0
tp8530
a((I0
I1
I2
I3
I4
tp8531
I0
tp8532
a((I0
I1
I2
I3
I4
tp8533
I0
tp8534
a((I0
I1
I2
I3
I4
I5
tp8535
I0
tp8536
a((I0
I1
I2
I3
tp8537
I0
tp8538
a((I1
I2
I3
I5
tp8539
I0
tp8540
a((I0
I1
I2
I3
I4
tp8541
I0
tp8542
a((I0
I1
I2
I3
I4
tp8543
I0
tp8544
a((I1
I2
I3
I5
tp8545
I3
tp8546
a((I0
I1
I2
I3
tp8547
I0
tp8548
a((I0
I1
I2
I3
tp8549
I0
tp8550
a((I0
I1
I2
tp8551
I0
tp8552
a((I0
I1
I2
I3
I4
tp8553
I0
tp8554
a((I0
I1
I2
I3
I5
tp8555
I0
tp8556
a((I0
I1
I2
I3
I4
I5
tp8557
I0
tp8558
a((I0
I1
I2
I3
I5
tp8559
I0
tp8560
a((I0
I1
I2
I3
I5
tp8561
I0
tp8562
a((I0
I1
I2
I3
tp8563
I0
tp8564
a((I0
I1
I2
I3
tp8565
I1
tp8566
a((I0
I1
I2
I3
I5
tp8567
I0
tp8568
a((I0
I1
I2
I3
tp8569
I0
tp8570
a((I0
I1
I2
I3
tp8571
I0
tp8572
a((I0
I1
I2
tp8573
I0
tp8574
a((I0
I1
I2
tp8575
I0
tp8576
a((I0
I1
I2
I3
I5
tp8577
I4
tp8578
a((I0
I1
I2
I3
tp8579
I0
tp8580
a((I0
I1
I2
I3
I4
tp8581
I0
tp8582
a((I0
I1
I2
I3
I4
I5
tp8583
I0
tp8584
a((I0
I1
I2
I3
tp8585
I0
tp8586
a((I0
I1
I2
tp8587
I1
tp8588
a((I0
I1
I2
I3
tp8589
I0
tp8590
a((I0
I1
I2
I3
tp8591
I1
tp8592
a((I0
I1
I2
I3
tp8593
I0
tp8594
a((I0
I1
I2
I3
tp8595
I0
tp8596
a((I0
I1
I2
I3
I5
tp8597
I0
tp8598
a((I0
I1
I2
I3
I4
tp8599
I0
tp8600
a((I0
I1
I2
I3
I4
tp8601
I0
tp8602
a((I0
I1
I2
I3
tp8603
I0
tp8604
a((I0
I1
I2
I4
tp8605
I0
tp8606
a((I0
I1
I2
I3
I4
tp8607
I0
tp8608
a((I0
I1
I2
I3
tp8609
I3
tp8610
a((I0
I1
I2
I3
I5
tp8611
I0
tp8612
a((I0
I1
I2
I3
I4
tp8613
I0
tp8614
a((I0
I1
I2
I3
I4
tp8615
I0
tp8616
a((I0
I1
I2
I3
tp8617
I0
tp8618
a((I0
I1
I2
I3
tp8619
I0
tp8620
a((I0
I1
I2
I3
tp8621
I0
tp8622
a((I0
I1
I2
I3
tp8623
I0
tp8624
a((I0
I1
I2
I3
I4
I5
tp8625
I0
tp8626
a((I0
I1
I2
I3
I4
I5
tp8627
I0
tp8628
a((I0
I1
I2
I3
I4
I5
tp8629
I0
tp8630
a((I0
I1
I2
I3
tp8631
I3
tp8632
a((I0
I1
I2
I3
I4
tp8633
I0
tp8634
a((I1
I2
I3
I5
tp8635
I0
tp8636
a((I0
I1
I2
I3
I4
tp8637
I0
tp8638
a((I0
I1
I2
I3
I4
tp8639
I0
tp8640
a((I0
I1
I2
I3
I4
tp8641
I0
tp8642
a((I0
I1
I2
I3
I4
tp8643
I0
tp8644
a((I0
I1
I2
I3
I4
I5
tp8645
I0
tp8646
a((I0
I1
I2
I3
I4
tp8647
I0
tp8648
a((I0
I1
I2
I3
I4
tp8649
I0
tp8650
a((I0
I1
I2
I3
I4
tp8651
I0
tp8652
a((I0
I1
I2
I3
tp8653
I1
tp8654
a((I0
I1
I2
I3
I4
tp8655
I0
tp8656
a((I0
I1
I2
I3
I4
I5
tp8657
I0
tp8658
a((I0
I1
I2
I3
tp8659
I0
tp8660
a((I0
I1
I2
I3
tp8661
I0
tp8662
a((I0
I1
I2
tp8663
I0
tp8664
a((I0
I1
I2
tp8665
I0
tp8666
a((I0
I1
I2
tp8667
I0
tp8668
a((I0
I1
I2
I3
I4
I5
tp8669
I0
tp8670
a((I0
I1
I2
tp8671
I0
tp8672
a((I0
I1
I2
I3
I4
I5
tp8673
I0
tp8674
a((I0
I1
I2
I3
I4
tp8675
I0
tp8676
a((I0
I1
I2
tp8677
I0
tp8678
a((I1
I2
I3
I4
I5
tp8679
I4
tp8680
a((I0
I1
I2
I3
tp8681
I1
tp8682
a((I0
I1
I2
I3
tp8683
I0
tp8684
a((I0
I1
I2
I3
tp8685
I0
tp8686
a((I0
I1
I2
I3
tp8687
I0
tp8688
a((I0
I1
I2
I4
tp8689
I0
tp8690
a((I0
I1
I2
tp8691
I0
tp8692
a((I0
I1
I2
I3
tp8693
I0
tp8694
a((I0
I1
I2
tp8695
I0
tp8696
a((I0
I1
I2
I3
I4
I5
tp8697
I0
tp8698
a((I0
I1
I2
I3
tp8699
I0
tp8700
a((I0
I1
I2
I3
I5
tp8701
I4
tp8702
a((I0
I1
I2
I3
tp8703
I0
tp8704
a((I0
I1
I2
I3
I4
tp8705
I1
tp8706
a((I0
I1
I2
tp8707
I0
tp8708
a((I0
I1
I2
I3
tp8709
I0
tp8710
a((I0
I1
I2
I3
tp8711
I0
tp8712
a((I0
I1
I2
tp8713
I0
tp8714
a((I0
I1
I2
I4
tp8715
I0
tp8716
a((I0
I1
I2
I3
I4
I5
tp8717
I0
tp8718
a((I0
I1
I2
I3
tp8719
I0
tp8720
a((I0
I1
I2
I3
I5
tp8721
I0
tp8722
a((I0
I1
I2
I3
I5
tp8723
I0
tp8724
a((I0
I1
I2
tp8725
I0
tp8726
a((I0
I1
I2
I3
I4
tp8727
I0
tp8728
a((I0
I1
I2
I3
tp8729
I0
tp8730
a((I0
I1
I2
I3
I4
I5
tp8731
I0
tp8732
a((I0
I1
I2
I3
tp8733
I0
tp8734
a((I0
I1
I2
I3
I4
I5
tp8735
I0
tp8736
a((I0
I1
I2
I3
I4
tp8737
I1
tp8738
a((I0
I1
I2
tp8739
I0
tp8740
a((I0
I1
I2
I3
I5
tp8741
I0
tp8742
a((I0
I1
I2
tp8743
I0
tp8744
a((I0
I1
I2
I3
I5
tp8745
I0
tp8746
a((I0
I1
I2
I3
I4
tp8747
I0
tp8748
a((I0
I1
I2
I3
I4
tp8749
I0
tp8750
a((I0
I1
I2
I3
tp8751
I0
tp8752
a((I0
I1
I2
I3
tp8753
I0
tp8754
a((I0
I1
I2
I3
tp8755
I0
tp8756
a((I0
I1
I2
tp8757
I0
tp8758
a((I0
I1
I2
I3
tp8759
I0
tp8760
a((I0
I1
I2
I3
I4
tp8761
I0
tp8762
a((I0
I1
I2
I3
tp8763
I0
tp8764
a((I0
I1
I2
I3
tp8765
I0
tp8766
a((I0
I1
I2
I3
I4
tp8767
I0
tp8768
a((I0
I1
I2
I3
I4
tp8769
I0
tp8770
a((I0
I1
I2
I3
tp8771
I1
tp8772
a((I0
I1
I2
I3
I4
tp8773
I0
tp8774
a((I0
I1
I2
I3
tp8775
I0
tp8776
a((I0
I1
I2
I3
tp8777
I0
tp8778
a((I0
I1
I2
I3
I4
tp8779
I0
tp8780
a((I0
I1
I2
I3
I4
tp8781
I0
tp8782
a((I0
I1
I2
I4
tp8783
I0
tp8784
a((I0
I1
I2
I3
tp8785
I0
tp8786
a((I0
I1
I2
I3
tp8787
I0
tp8788
a((I0
I1
I2
I3
tp8789
I0
tp8790
a((I0
I1
I2
I3
tp8791
I0
tp8792
a((I0
I1
I2
I3
I4
tp8793
I0
tp8794
a((I0
I1
I2
I3
tp8795
I0
tp8796
a((I0
I1
I2
I3
tp8797
I3
tp8798
a((I0
I1
I2
I3
I4
tp8799
I0
tp8800
a((I0
I1
I2
I3
tp8801
I0
tp8802
a((I0
I1
I2
I3
I5
tp8803
I1
tp8804
a((I0
I1
I2
tp8805
I0
tp8806
a((I0
I1
I2
tp8807
I1
tp8808
a((I0
I1
I2
tp8809
I1
tp8810
a((I0
I1
I2
I3
tp8811
I0
tp8812
a((I0
I1
I2
I3
I4
tp8813
I0
tp8814
a((I0
I1
I2
tp8815
I0
tp8816
a((I0
I1
I2
I3
I5
tp8817
I0
tp8818
a((I0
I1
I2
I3
I4
tp8819
I0
tp8820
a((I0
I1
I2
I3
I4
tp8821
I1
tp8822
a((I0
I1
I2
I3
tp8823
I0
tp8824
a((I0
I1
I2
I3
tp8825
I1
tp8826
a((I0
I1
I2
I3
tp8827
I1
tp8828
a((I0
I1
I2
I3
I5
tp8829
I0
tp8830
a((I1
I2
I3
tp8831
I2
tp8832
a((I0
I1
I2
I3
I4
tp8833
I0
tp8834
a((I0
I1
I2
I3
tp8835
I0
tp8836
a((I0
I1
I2
I3
tp8837
I0
tp8838
a((I0
I1
I2
I3
tp8839
I0
tp8840
a((I0
I1
I2
I3
tp8841
I0
tp8842
a((I0
I1
I2
I3
tp8843
I0
tp8844
a((I0
I1
I2
I3
I4
tp8845
I0
tp8846
a((I0
I1
I2
I3
I4
tp8847
I0
tp8848
a((I0
I1
I2
I3
I4
tp8849
I0
tp8850
a((I0
I1
I2
I3
I5
tp8851
I0
tp8852
a((I0
I1
I2
tp8853
I0
tp8854
a((I0
I1
I2
I3
I5
tp8855
I0
tp8856
a((I0
I1
I2
I3
I4
tp8857
I0
tp8858
a((I0
I1
I2
I3
tp8859
I0
tp8860
a((I0
I1
I2
I3
tp8861
I0
tp8862
a((I0
I1
I2
I3
tp8863
I0
tp8864
a((I0
I1
I2
I3
I4
tp8865
I0
tp8866
a((I0
I1
I2
I3
I4
tp8867
I0
tp8868
a((I0
I1
I2
I3
I4
tp8869
I0
tp8870
a((I0
I1
I2
I3
I4
tp8871
I0
tp8872
a((I0
I1
I2
I3
I4
tp8873
I0
tp8874
a((I0
I1
I2
I3
I4
tp8875
I0
tp8876
a((I1
I2
I3
tp8877
I0
tp8878
a((I0
I1
I2
I3
I4
I5
tp8879
I5
tp8880
a((I0
I1
I2
I3
tp8881
I0
tp8882
a((I0
I1
I2
I3
I4
I5
tp8883
I0
tp8884
a((I0
I1
I2
tp8885
I0
tp8886
a((I0
I1
I2
I3
I4
tp8887
I1
tp8888
a((I0
I1
I2
I3
tp8889
I0
tp8890
a((I0
I1
I2
tp8891
I0
tp8892
a((I0
I1
I2
I3
tp8893
I0
tp8894
a((I0
I1
I2
I3
tp8895
I0
tp8896
a((I0
I1
I2
tp8897
I0
tp8898
a((I0
I1
I2
I3
I5
tp8899
I0
tp8900
a((I0
I1
I2
I3
tp8901
I0
tp8902
a((I0
I1
I2
I3
tp8903
I0
tp8904
a((I0
I1
I2
tp8905
I0
tp8906
a((I0
I1
I2
I3
tp8907
I0
tp8908
a((I0
I1
I2
I3
I4
tp8909
I0
tp8910
a((I0
I1
I2
I3
tp8911
I0
tp8912
a((I0
I1
I2
I3
I4
tp8913
I0
tp8914
a((I0
I1
I2
I3
I4
tp8915
I0
tp8916
a((I0
I1
I2
I3
I4
I5
tp8917
I0
tp8918
a((I0
I1
I2
I3
I4
tp8919
I0
tp8920
a((I0
I1
I2
I3
tp8921
I0
tp8922
a((I0
I1
I2
I3
tp8923
I1
tp8924
a((I0
I1
I2
I3
tp8925
I1
tp8926
a((I0
I1
I2
I3
tp8927
I0
tp8928
a((I0
I1
I2
I3
I4
tp8929
I0
tp8930
a((I0
I1
I2
I3
tp8931
I0
tp8932
a((I0
I1
I2
I3
I4
tp8933
I0
tp8934
a((I0
I1
I2
I3
tp8935
I0
tp8936
a((I0
I1
I2
I3
I4
I5
tp8937
I0
tp8938
a((I0
I1
I2
I3
I4
tp8939
I0
tp8940
a((I0
I1
I2
I3
I4
tp8941
I0
tp8942
a((I0
I1
I2
I3
I4
tp8943
I0
tp8944
a((I0
I1
I2
I3
I4
tp8945
I0
tp8946
a((I0
I1
I2
I3
I4
I5
tp8947
I5
tp8948
a((I0
I1
I2
I3
I4
tp8949
I0
tp8950
a((I0
I1
I2
I3
tp8951
I0
tp8952
a((I0
I1
I2
I3
I4
tp8953
I0
tp8954
a((I0
I1
I2
I3
tp8955
I0
tp8956
a((I0
I1
I2
I3
tp8957
I0
tp8958
a((I0
I1
I2
I3
tp8959
I0
tp8960
a((I0
I1
I2
I3
tp8961
I0
tp8962
a((I0
I1
I2
I3
I4
tp8963
I0
tp8964
a((I0
I1
I2
I3
I4
tp8965
I0
tp8966
a((I0
I1
I2
I3
I5
tp8967
I4
tp8968
a((I0
I1
I2
I3
tp8969
I0
tp8970
a((I0
I1
I2
I3
tp8971
I0
tp8972
a((I0
I1
I2
I3
tp8973
I0
tp8974
a((I0
I1
I2
I3
tp8975
I0
tp8976
a((I0
I1
I2
I3
I4
I5
tp8977
I0
tp8978
a((I0
I1
I2
I3
I4
I5
tp8979
I0
tp8980
a((I0
I1
I2
I3
I4
I5
tp8981
I0
tp8982
a((I0
I1
I2
I3
I5
tp8983
I0
tp8984
a((I0
I1
I2
I3
tp8985
I0
tp8986
a((I0
I1
I2
I3
I4
tp8987
I0
tp8988
a((I0
I1
I2
I3
tp8989
I0
tp8990
a((I0
I1
I2
tp8991
I0
tp8992
a((I0
I1
I2
I3
tp8993
I0
tp8994
a((I0
I1
I2
I3
I4
tp8995
I0
tp8996
a((I0
I1
I2
tp8997
I0
tp8998
a((I0
I1
I2
I3
tp8999
I0
tp9000
a((I0
I1
I2
I3
I4
tp9001
I0
tp9002
a((I0
I1
I2
tp9003
I1
tp9004
a((I0
I1
I2
I3
I4
tp9005
I0
tp9006
a((I0
I1
I2
I3
I4
tp9007
I0
tp9008
a((I0
I1
I2
I3
tp9009
I0
tp9010
a((I0
I1
I2
I3
tp9011
I0
tp9012
a((I0
I1
I2
I3
tp9013
I0
tp9014
a((I0
I1
I2
I3
I4
tp9015
I0
tp9016
a((I0
I1
I2
I3
tp9017
I0
tp9018
a((I1
I2
I3
I4
I5
tp9019
I0
tp9020
a((I0
I1
I2
I3
I4
tp9021
I0
tp9022
a((I0
I1
I2
I3
I5
tp9023
I0
tp9024
a((I0
I1
I2
I3
I5
tp9025
I0
tp9026
a((I0
I1
I2
I3
tp9027
I0
tp9028
a((I0
I1
I2
I3
I5
tp9029
I1
tp9030
a((I0
I1
I2
I3
I5
tp9031
I1
tp9032
a((I0
I1
I2
I3
I4
tp9033
I4
tp9034
a((I0
I1
I2
I3
I4
I5
tp9035
I1
tp9036
a((I0
I1
I2
I3
I4
I5
tp9037
I0
tp9038
a((I0
I1
I2
I3
tp9039
I0
tp9040
a((I0
I1
I2
I4
I5
tp9041
I0
tp9042
a((I0
I1
I2
tp9043
I1
tp9044
a((I0
I1
I2
I5
tp9045
I0
tp9046
a((I0
I1
I2
I5
tp9047
I0
tp9048
a((I0
I1
I2
tp9049
I1
tp9050
a((I0
I1
I2
tp9051
I0
tp9052
a((I0
I1
I2
I4
I5
tp9053
I0
tp9054
a((I0
I1
I2
tp9055
I1
tp9056
a((I0
I1
I2
I5
tp9057
I1
tp9058
a((I0
I1
I2
I4
I5
tp9059
I0
tp9060
a((I0
I1
I2
tp9061
I0
tp9062
a((I0
I1
I2
tp9063
I0
tp9064
a((I0
I1
I2
tp9065
I0
tp9066
a((I0
I1
I2
tp9067
I0
tp9068
a((I0
I1
I2
I3
I4
I5
tp9069
I5
tp9070
a((I0
I1
I2
tp9071
I0
tp9072
a((I0
I1
I2
tp9073
I1
tp9074
a((I0
I1
I2
tp9075
I0
tp9076
a((I0
I1
I2
I4
I5
tp9077
I0
tp9078
a((I0
I1
I2
tp9079
I0
tp9080
a((I0
I1
I2
tp9081
I0
tp9082
a((I0
I1
I2
tp9083
I0
tp9084
a((I0
I1
I2
tp9085
I1
tp9086
a((I0
I1
I2
tp9087
I0
tp9088
a((I0
I1
I2
tp9089
I0
tp9090
a((I0
I1
I2
tp9091
I0
tp9092
a((I0
I1
I2
I3
I4
I5
tp9093
I0
tp9094
a((I0
I1
I2
tp9095
I0
tp9096
a((I0
I1
I2
tp9097
I0
tp9098
a((I0
I1
I2
tp9099
I0
tp9100
a((I0
I1
I2
tp9101
I0
tp9102
a((I0
I1
I2
tp9103
I0
tp9104
a((I0
I1
I2
tp9105
I0
tp9106
a((I0
I1
I2
tp9107
I0
tp9108
a((I0
I1
I2
I3
I5
tp9109
I4
tp9110
a((I0
I1
I2
tp9111
I0
tp9112
a((I0
I1
I2
I3
I4
I5
tp9113
I0
tp9114
a((I0
I1
I2
tp9115
I0
tp9116
a((I0
I1
I2
tp9117
I0
tp9118
a((I0
I1
I2
I3
I4
I5
tp9119
I5
tp9120
a((I0
I1
I2
I3
I4
tp9121
I0
tp9122
a((I0
I1
I2
tp9123
I0
tp9124
a((I0
I1
I2
tp9125
I0
tp9126
a((I0
I1
I2
I3
I5
tp9127
I4
tp9128
a((I0
I1
I2
tp9129
I0
tp9130
a((I0
I1
I2
I3
I4
I5
tp9131
I0
tp9132
a((I0
I1
I2
tp9133
I0
tp9134
a((I0
I1
I2
I3
I5
tp9135
I4
tp9136
a((I0
I1
I2
tp9137
I0
tp9138
a((I0
I1
I2
tp9139
I1
tp9140
a((I0
I1
I2
I3
I5
tp9141
I0
tp9142
a((I0
I1
I2
tp9143
I0
tp9144
a((I0
I1
I2
tp9145
I0
tp9146
a((I0
I1
I2
tp9147
I0
tp9148
a((I0
I1
I2
I3
I4
I5
tp9149
I0
tp9150
a((I0
I1
I2
tp9151
I0
tp9152
a((I0
I1
I2
tp9153
I0
tp9154
a((I0
I1
I2
tp9155
I0
tp9156
a((I0
I1
I2
tp9157
I0
tp9158
a((I0
I1
I2
tp9159
I0
tp9160
a((I0
I1
I2
I3
I5
tp9161
I0
tp9162
a((I0
I1
I2
I3
I4
tp9163
I0
tp9164
a((I0
I1
I2
tp9165
I0
tp9166
a((I0
I1
I2
I3
I4
I5
tp9167
I0
tp9168
a((I0
I1
I2
I3
tp9169
I0
tp9170
a((I0
I1
I2
tp9171
I0
tp9172
a((I0
I1
I2
tp9173
I2
tp9174
a((I0
I1
I2
tp9175
I0
tp9176
a((I0
I1
I2
I3
I5
tp9177
I0
tp9178
a((I0
I1
I2
tp9179
I1
tp9180
a((I0
I1
I2
tp9181
I1
tp9182
a((I0
I1
I2
tp9183
I1
tp9184
a((I0
I1
I2
I3
I5
tp9185
I0
tp9186
a((I0
I1
I2
I3
I5
tp9187
I0
tp9188
a((I0
I1
I2
I3
I5
tp9189
I0
tp9190
a((I0
I1
I2
I4
tp9191
I0
tp9192
a((I0
I1
I2
tp9193
I0
tp9194
a((I0
I1
I2
I3
I4
I5
tp9195
I0
tp9196
a((I0
I1
I2
I4
tp9197
I0
tp9198
a((I0
I1
I2
tp9199
I0
tp9200
a((I0
I1
I2
I4
tp9201
I0
tp9202
a((I0
I1
I2
I3
I5
tp9203
I0
tp9204
a((I0
I1
I2
I3
I4
I5
tp9205
I0
tp9206
a((I0
I1
I2
I3
I5
tp9207
I1
tp9208
a((I0
I1
I2
I4
tp9209
I0
tp9210
a((I0
I1
I2
I3
I4
I5
tp9211
I1
tp9212
a((I0
I1
I2
tp9213
I0
tp9214
a((I0
I1
I2
tp9215
I0
tp9216
a((I0
I1
I2
tp9217
I0
tp9218
a((I0
I1
I2
tp9219
I2
tp9220
a((I0
I1
I2
I3
I4
I5
tp9221
I0
tp9222
a((I0
I1
I2
I3
I4
I5
tp9223
I5
tp9224
a((I0
I1
I2
tp9225
I0
tp9226
a((I0
I1
I2
I3
I4
I5
tp9227
I5
tp9228
a((I0
I1
I2
I4
tp9229
I0
tp9230
a((I0
I1
I2
tp9231
I1
tp9232
a((I0
I1
I2
tp9233
I0
tp9234
a((I0
I1
I2
tp9235
I0
tp9236
a((I0
I1
I2
tp9237
I1
tp9238
a((I0
I1
I2
tp9239
I0
tp9240
a((I0
I1
I2
I3
I4
I5
tp9241
I1
tp9242
a((I0
I1
I2
tp9243
I0
tp9244
a((I0
I1
I2
tp9245
I2
tp9246
a((I0
I1
I2
tp9247
I1
tp9248
a((I0
I1
I2
tp9249
I0
tp9250
a((I0
I1
I2
tp9251
I0
tp9252
a((I0
I1
I2
I3
I5
tp9253
I0
tp9254
a((I0
I1
I2
I3
I4
I5
tp9255
I0
tp9256
a((I0
I1
I2
I3
I4
I5
tp9257
I0
tp9258
a((I1
I2
I3
I4
I5
tp9259
I2
tp9260
a((I1
I2
I3
I4
I5
tp9261
I0
tp9262
a((I0
I1
I2
tp9263
I0
tp9264
a((I0
I1
I2
tp9265
I0
tp9266
a((I0
I1
I2
tp9267
I0
tp9268
a((I0
I1
I2
tp9269
I0
tp9270
a((I0
I1
I2
I3
I4
I5
tp9271
I0
tp9272
a((I0
I1
I2
tp9273
I0
tp9274
a((I0
I1
I2
I3
I5
tp9275
I0
tp9276
a((I0
I1
I2
tp9277
I0
tp9278
a((I0
I1
I2
I3
I4
I5
tp9279
I4
tp9280
a((I0
I1
I2
tp9281
I0
tp9282
a((I0
I1
I2
tp9283
I0
tp9284
a((I0
I1
I2
tp9285
I0
tp9286
a((I0
I1
I2
tp9287
I0
tp9288
a((I0
I1
I2
tp9289
I1
tp9290
a((I0
I1
I2
tp9291
I0
tp9292
a((I1
I2
I3
I5
tp9293
I3
tp9294
a((I0
I1
I2
tp9295
I1
tp9296
a((I0
I1
I2
tp9297
I0
tp9298
a((I0
I1
I2
tp9299
I1
tp9300
a((I0
I1
I2
I3
I4
I5
tp9301
I4
tp9302
a((I0
I1
I2
tp9303
I0
tp9304
a((I0
I1
I2
tp9305
I0
tp9306
a((I0
I1
I2
I3
I4
I5
tp9307
I0
tp9308
a((I0
I1
I2
tp9309
I0
tp9310
a((I0
I1
I2
I3
I5
tp9311
I0
tp9312
a((I0
I1
I2
tp9313
I0
tp9314
a((I1
I2
I3
I5
tp9315
I3
tp9316
a((I1
I2
I3
I5
tp9317
I3
tp9318
a((I0
I1
I2
I3
I5
tp9319
I0
tp9320
a((I0
I1
I2
I3
tp9321
I0
tp9322
a((I0
I1
I2
I3
I5
tp9323
I0
tp9324
a((I0
I1
I2
I4
tp9325
I0
tp9326
a((I0
I1
I2
I3
I4
tp9327
I0
tp9328
a((I0
I1
I2
I3
tp9329
I0
tp9330
a((I0
I1
I2
tp9331
I2
tp9332
a((I0
I1
I2
I3
I4
I5
tp9333
I0
tp9334
a((I1
I2
I3
I4
I5
tp9335
I0
tp9336
a((I0
I1
I2
I3
I4
I5
tp9337
I0
tp9338
a((I0
I1
I2
tp9339
I0
tp9340
a((I0
I1
I2
tp9341
I0
tp9342
a((I0
I1
I2
I3
I4
I5
tp9343
I0
tp9344
a((I0
I1
I2
tp9345
I0
tp9346
a((I0
I1
I2
tp9347
I0
tp9348
a((I0
I1
I2
tp9349
I2
tp9350
a((I0
I1
I2
I5
tp9351
I0
tp9352
a((I0
I1
I2
I3
I5
tp9353
I0
tp9354
a((I0
I1
I2
tp9355
I0
tp9356
a((I0
I1
I2
I3
tp9357
I0
tp9358
a((I0
I1
I2
I3
tp9359
I0
tp9360
a((I0
I1
I2
tp9361
I0
tp9362
a((I0
I1
I2
I3
I4
I5
tp9363
I0
tp9364
a((I0
I1
I2
tp9365
I0
tp9366
a((I0
I1
I2
tp9367
I0
tp9368
a((I0
I1
I2
tp9369
I0
tp9370
a((I0
I1
I2
tp9371
I2
tp9372
a((I0
I1
I2
I3
I5
tp9373
I1
tp9374
a((I0
I1
I2
tp9375
I2
tp9376
a((I0
I1
I2
tp9377
I1
tp9378
a((I0
I1
I2
tp9379
I1
tp9380
a((I0
I1
I2
I3
I4
tp9381
I0
tp9382
a((I0
I1
I2
tp9383
I0
tp9384
a((I0
I1
I2
tp9385
I0
tp9386
a((I0
I1
I2
I3
I4
I5
tp9387
I5
tp9388
a((I0
I1
I2
I3
tp9389
I0
tp9390
a((I0
I1
I2
I3
tp9391
I3
tp9392
a((I0
I1
I2
tp9393
I0
tp9394
a((I0
I1
I2
tp9395
I0
tp9396
a((I0
I1
I2
I3
tp9397
I0
tp9398
a((I0
I1
I2
I3
tp9399
I3
tp9400
a((I0
I1
I2
tp9401
I1
tp9402
a((I0
I1
I2
tp9403
I1
tp9404
a((I0
I1
I2
I3
tp9405
I0
tp9406
a((I0
I1
I2
I3
I5
tp9407
I0
tp9408
a((I0
I1
I2
I3
I5
tp9409
I0
tp9410
a((I1
I2
I3
tp9411
I2
tp9412
a((I0
I1
I2
I3
I5
tp9413
I0
tp9414
a((I0
I1
I2
I3
I5
tp9415
I0
tp9416
a((I1
I2
I3
I5
tp9417
I3
tp9418
a((I0
I1
I2
I3
I5
tp9419
I0
tp9420
a((I0
I1
I2
I3
I5
tp9421
I0
tp9422
a((I0
I1
I2
I3
I5
tp9423
I0
tp9424
a((I0
I1
I2
I3
I4
I5
tp9425
I4
tp9426
a((I0
I1
I2
I3
tp9427
I1
tp9428
a((I0
I1
I2
I3
I5
tp9429
I1
tp9430
a((I0
I1
I2
I3
I5
tp9431
I0
tp9432
a((I1
I2
I3
I5
tp9433
I3
tp9434
a((I0
I1
I2
tp9435
I0
tp9436
a((I0
I1
I2
tp9437
I0
tp9438
a((I0
I1
I2
I3
I5
tp9439
I0
tp9440
a((I0
I1
I2
I3
tp9441
I0
tp9442
a((I0
I1
I2
tp9443
I1
tp9444
a((I0
I1
I2
tp9445
I1
tp9446
a((I0
I1
I2
tp9447
I1
tp9448
a((I0
I1
I2
tp9449
I2
tp9450
a((I0
I1
I2
I3
tp9451
I0
tp9452
a((I0
I1
I2
I3
I5
tp9453
I2
tp9454
a((I0
I1
I2
I5
tp9455
I0
tp9456
a((I0
I1
I2
I3
tp9457
I0
tp9458
a((I0
I1
I2
tp9459
I1
tp9460
a((I0
I1
I2
tp9461
I1
tp9462
a((I0
I1
I2
I3
I5
tp9463
I0
tp9464
a((I0
I1
I2
I3
I4
tp9465
I0
tp9466
a((I0
I1
I2
I3
I4
tp9467
I0
tp9468
a((I0
I1
I2
I3
I4
I5
tp9469
I0
tp9470
a((I0
I1
I2
I3
I4
I5
tp9471
I0
tp9472
a((I0
I1
I2
I3
I4
I5
tp9473
I0
tp9474
a((I0
I1
I2
I3
I5
tp9475
I0
tp9476
a((I0
I1
I2
I3
tp9477
I1
tp9478
a((I0
I1
I2
tp9479
I0
tp9480
a((I0
I1
I2
I4
tp9481
I0
tp9482
a((I0
I1
I2
tp9483
I0
tp9484
a((I0
I1
I2
I3
I5
tp9485
I0
tp9486
a((I0
I1
I2
I3
tp9487
I1
tp9488
a((I0
I1
I2
I3
tp9489
I0
tp9490
a((I0
I1
I2
I3
I4
tp9491
I0
tp9492
a((I0
I1
I2
tp9493
I0
tp9494
a((I0
I1
I2
I3
I4
I5
tp9495
I0
tp9496
a((I0
I1
I2
I3
I4
I5
tp9497
I0
tp9498
a((I0
I1
I2
tp9499
I0
tp9500
a((I0
I1
I2
tp9501
I0
tp9502
a((I0
I1
I2
I3
I4
tp9503
I0
tp9504
a((I0
I1
I2
I3
I5
tp9505
I0
tp9506
a((I0
I1
I2
I3
tp9507
I0
tp9508
a((I0
I1
I2
tp9509
I0
tp9510
a((I0
I1
I2
tp9511
I0
tp9512
a((I0
I1
I2
tp9513
I0
tp9514
a((I0
I1
I2
I4
I5
tp9515
I1
tp9516
a((I0
I1
I2
I3
I4
tp9517
I0
tp9518
a((I0
I1
I2
I3
tp9519
I0
tp9520
a((I0
I1
I2
tp9521
I1
tp9522
a((I0
I1
I2
tp9523
I1
tp9524
a((I0
I1
I2
tp9525
I0
tp9526
a((I0
I1
I2
I3
tp9527
I0
tp9528
a((I0
I1
I2
tp9529
I0
tp9530
a((I0
I1
I2
tp9531
I0
tp9532
a((I0
I1
I2
I3
tp9533
I0
tp9534
a((I0
I1
I2
I3
I4
tp9535
I0
tp9536
a((I0
I1
I2
tp9537
I0
tp9538
a((I0
I1
I2
tp9539
I0
tp9540
a((I0
I1
I2
tp9541
I0
tp9542
a((I0
I1
I2
tp9543
I0
tp9544
a((I0
I1
I2
I3
I5
tp9545
I0
tp9546
a((I0
I1
I2
I3
I4
tp9547
I1
tp9548
a((I0
I1
I2
I5
tp9549
I0
tp9550
a((I0
I1
I2
tp9551
I0
tp9552
a((I1
I2
I3
I4
I5
tp9553
I4
tp9554
a((I0
I1
I2
I4
tp9555
I0
tp9556
a((I0
I1
I2
tp9557
I0
tp9558
a((I0
I1
I2
I5
tp9559
I0
tp9560
a((I0
I1
I2
tp9561
I0
tp9562
a((I0
I1
I2
I3
I5
tp9563
I0
tp9564
a((I0
I1
I2
tp9565
I0
tp9566
a((I0
I1
I2
tp9567
I0
tp9568
a((I0
I1
I2
I3
tp9569
I0
tp9570
a((I0
I1
I2
I3
I4
I5
tp9571
I0
tp9572
a((I0
I1
I2
I3
tp9573
I0
tp9574
a((I0
I1
I2
I3
tp9575
I0
tp9576
a((I0
I1
I2
I3
I4
I5
tp9577
I0
tp9578
a((I0
I1
I2
I3
I4
tp9579
I0
tp9580
a((I0
I1
I2
I4
I5
tp9581
I0
tp9582
a((I0
I1
I2
I3
I4
I5
tp9583
I0
tp9584
a((I0
I1
I2
I3
tp9585
I0
tp9586
a((I0
I1
I2
I3
I4
I5
tp9587
I0
tp9588
a((I0
I1
I2
I3
I4
I5
tp9589
I1
tp9590
a((I0
I1
I2
I4
tp9591
I0
tp9592
a((I0
I1
I2
tp9593
I0
tp9594
a((I0
I1
I2
I3
tp9595
I0
tp9596
a((I0
I1
I2
I5
tp9597
I3
tp9598
a((I0
I1
I2
I3
tp9599
I0
tp9600
a((I0
I1
I2
I3
tp9601
I0
tp9602
a((I0
I1
I2
I3
tp9603
I0
tp9604
a((I0
I1
I2
tp9605
I0
tp9606
a((I0
I1
I2
I3
I4
tp9607
I0
tp9608
a((I0
I1
I2
I3
I4
I5
tp9609
I0
tp9610
a((I0
I1
I2
tp9611
I1
tp9612
a((I0
I1
I2
I3
tp9613
I2
tp9614
a((I0
I1
I2
I3
I4
I5
tp9615
I5
tp9616
a((I0
I1
I2
I3
I4
I5
tp9617
I0
tp9618
a((I0
I1
I2
I3
I4
tp9619
I0
tp9620
a((I0
I1
I2
tp9621
I0
tp9622
a((I0
I1
I2
I3
I4
tp9623
I0
tp9624
a((I0
I1
I2
I3
tp9625
I0
tp9626
a((I0
I1
I2
I3
I4
I5
tp9627
I0
tp9628
a((I0
I1
I2
tp9629
I1
tp9630
a((I0
I1
I2
I3
tp9631
I0
tp9632
a((I0
I1
I2
I3
I4
I5
tp9633
I0
tp9634
a((I0
I1
I2
I3
I4
I5
tp9635
I0
tp9636
a((I0
I1
I2
I4
tp9637
I0
tp9638
a((I0
I1
I2
I3
I5
tp9639
I0
tp9640
a((I0
I1
I2
I3
I4
I5
tp9641
I0
tp9642
a((I0
I1
I2
I3
I4
tp9643
I0
tp9644
a((I0
I1
I2
tp9645
I0
tp9646
a((I0
I1
I2
I3
I4
I5
tp9647
I0
tp9648
a((I0
I1
I2
I3
tp9649
I0
tp9650
a((I0
I1
I2
I4
tp9651
I0
tp9652
a((I0
I1
I2
tp9653
I1
tp9654
a((I0
I1
I2
tp9655
I0
tp9656
a((I0
I1
I2
I5
tp9657
I0
tp9658
a((I0
I1
I2
I4
I5
tp9659
I0
tp9660
a((I0
I1
I2
tp9661
I0
tp9662
a((I0
I1
I2
I3
tp9663
I0
tp9664
a((I0
I1
I2
I3
I4
I5
tp9665
I0
tp9666
a((I0
I1
I2
I3
I4
I5
tp9667
I0
tp9668
a((I0
I1
I2
I3
I4
tp9669
I0
tp9670
a((I0
I1
I2
I3
tp9671
I0
tp9672
a((I0
I1
I2
I3
I4
I5
tp9673
I0
tp9674
a((I0
I1
I2
I3
I4
I5
tp9675
I0
tp9676
a((I0
I1
I2
I3
I5
tp9677
I0
tp9678
a((I0
I1
I2
I4
I5
tp9679
I0
tp9680
a((I0
I1
I2
I4
I5
tp9681
I0
tp9682
a((I0
I1
I2
I4
I5
tp9683
I0
tp9684
a((I1
I2
I3
I5
tp9685
I2
tp9686
a((I0
I1
I2
I3
I4
I5
tp9687
I5
tp9688
a((I0
I1
I2
I3
I4
I5
tp9689
I0
tp9690
a((I0
I1
I2
I3
I5
tp9691
I0
tp9692
a((I0
I1
I2
tp9693
I0
tp9694
a((I0
I1
I2
I3
I4
tp9695
I0
tp9696
a((I0
I1
I2
I3
I4
tp9697
I0
tp9698
a((I0
I1
I2
I3
tp9699
I0
tp9700
a((I0
I1
I2
I3
I4
I5
tp9701
I0
tp9702
a((I0
I1
I2
tp9703
I2
tp9704
a((I0
I1
I2
I3
I4
tp9705
I1
tp9706
a((I0
I1
I2
I3
I4
tp9707
I0
tp9708
a((I0
I1
I2
I3
I4
tp9709
I0
tp9710
a((I1
I2
I3
tp9711
I1
tp9712
a((I0
I1
I2
I3
I5
tp9713
I0
tp9714
a((I0
I1
I2
I3
I5
tp9715
I0
tp9716
a((I0
I1
I2
I3
I5
tp9717
I0
tp9718
a((I0
I1
I2
tp9719
I1
tp9720
a((I0
I1
I2
I3
tp9721
I0
tp9722
a((I0
I1
I2
I3
I5
tp9723
I1
tp9724
a((I0
I1
I2
I3
I4
I5
tp9725
I0
tp9726
a((I0
I1
I2
tp9727
I0
tp9728
a((I0
I1
I2
I3
tp9729
I3
tp9730
a((I0
I1
I2
tp9731
I0
tp9732
a((I0
I1
I2
tp9733
I0
tp9734
a((I0
I1
I2
I3
I4
I5
tp9735
I0
tp9736
a((I0
I1
I2
I3
I4
I5
tp9737
I0
tp9738
a((I0
I1
I2
I3
I5
tp9739
I0
tp9740
a((I0
I1
I2
I3
I4
tp9741
I0
tp9742
a((I0
I1
I2
I3
I4
tp9743
I0
tp9744
a((I0
I1
I2
I3
I4
I5
tp9745
I0
tp9746
a((I0
I1
I2
tp9747
I2
tp9748
a((I0
I1
I2
I3
tp9749
I0
tp9750
a((I0
I1
I2
I3
I4
I5
tp9751
I4
tp9752
a((I0
I1
I2
I3
I4
I5
tp9753
I0
tp9754
a((I0
I1
I2
I3
I4
tp9755
I0
tp9756
a((I0
I1
I2
I3
tp9757
I0
tp9758
a((I0
I1
I2
I3
tp9759
I0
tp9760
a((I0
I1
I2
I3
I4
I5
tp9761
I0
tp9762
a((I0
I1
I2
I3
I4
I5
tp9763
I0
tp9764
a((I0
I1
I2
I3
tp9765
I0
tp9766
a((I0
I1
I2
I3
I4
I5
tp9767
I0
tp9768
a((I0
I1
I2
I3
I4
I5
tp9769
I0
tp9770
a((I0
I1
I2
I3
tp9771
I0
tp9772
a((I0
I1
I2
I3
I4
I5
tp9773
I1
tp9774
a((I0
I1
I2
tp9775
I2
tp9776
a((I0
I1
I2
tp9777
I2
tp9778
a((I0
I1
I2
tp9779
I0
tp9780
a((I0
I1
I2
I4
tp9781
I0
tp9782
a((I0
I1
I2
I3
I5
tp9783
I0
tp9784
a((I0
I1
I2
I3
I5
tp9785
I0
tp9786
a((I0
I1
I2
I3
tp9787
I1
tp9788
a((I0
I1
I2
I3
tp9789
I1
tp9790
a((I0
I1
I2
I3
I4
I5
tp9791
I0
tp9792
a((I0
I1
I2
I3
I4
I5
tp9793
I0
tp9794
a((I0
I1
I2
I3
tp9795
I0
tp9796
a((I0
I1
I2
I5
tp9797
I0
tp9798
a((I0
I1
I2
I3
tp9799
I0
tp9800
a((I0
I1
I2
I3
I5
tp9801
I0
tp9802
a((I0
I1
I2
tp9803
I1
tp9804
a((I0
I1
I2
tp9805
I0
tp9806
a((I0
I1
I2
I3
I4
I5
tp9807
I0
tp9808
a((I0
I1
I2
I3
I5
tp9809
I0
tp9810
a((I0
I1
I2
tp9811
I0
tp9812
a((I0
I1
I2
I3
I5
tp9813
I0
tp9814
a((I0
I1
I2
I3
tp9815
I0
tp9816
a((I0
I1
I2
I3
tp9817
I0
tp9818
a((I0
I1
I2
I3
tp9819
I0
tp9820
a((I0
I1
I2
I3
tp9821
I0
tp9822
a((I0
I1
I2
I3
tp9823
I1
tp9824
a((I0
I1
I2
I3
tp9825
I0
tp9826
a((I0
I1
I2
tp9827
I0
tp9828
a((I0
I1
I2
I3
tp9829
I0
tp9830
a((I0
I1
I2
I3
I4
tp9831
I0
tp9832
a((I0
I1
I2
I3
tp9833
I0
tp9834
a((I0
I1
I2
I3
I4
tp9835
I0
tp9836
a((I0
I1
I2
I3
tp9837
I0
tp9838
a((I0
I1
I2
I3
I4
I5
tp9839
I0
tp9840
a((I0
I1
I2
I3
I4
tp9841
I0
tp9842
a((I0
I1
I2
I3
I5
tp9843
I0
tp9844
a((I0
I1
I2
I3
I4
tp9845
I0
tp9846
a((I0
I1
I2
I3
tp9847
I0
tp9848
a((I0
I1
I2
I3
I4
tp9849
I0
tp9850
a((I0
I1
I2
tp9851
I0
tp9852
a((I0
I1
I2
I3
I4
I5
tp9853
I0
tp9854
a((I1
I2
I3
tp9855
I2
tp9856
a((I0
I1
I2
I3
I4
tp9857
I0
tp9858
a((I0
I1
I2
I3
tp9859
I0
tp9860
a((I0
I1
I2
I3
I4
I5
tp9861
I2
tp9862
a((I0
I1
I2
I3
tp9863
I0
tp9864
a((I0
I1
I2
I3
I4
I5
tp9865
I0
tp9866
a((I0
I1
I2
tp9867
I0
tp9868
a((I0
I1
I2
I3
I4
tp9869
I0
tp9870
a((I0
I1
I2
I3
tp9871
I0
tp9872
a((I0
I1
I2
I3
I4
tp9873
I0
tp9874
a((I0
I1
I2
I3
I4
tp9875
I0
tp9876
a((I0
I1
I2
I3
tp9877
I0
tp9878
a((I0
I1
I2
I3
I5
tp9879
I4
tp9880
a((I0
I1
I2
I3
tp9881
I0
tp9882
a((I0
I1
I2
I3
tp9883
I0
tp9884
a((I0
I1
I2
I3
tp9885
I0
tp9886
a((I0
I1
I2
I3
I5
tp9887
I1
tp9888
a((I0
I1
I2
I3
I5
tp9889
I0
tp9890
a((I0
I1
I2
I3
I4
tp9891
I0
tp9892
a((I0
I1
I2
tp9893
I2
tp9894
a((I0
I1
I2
tp9895
I0
tp9896
a((I0
I1
I2
tp9897
I0
tp9898
a((I0
I1
I2
I3
tp9899
I0
tp9900
a((I0
I1
I2
I3
I4
I5
tp9901
I0
tp9902
a((I0
I1
I2
I3
I4
tp9903
I0
tp9904
a((I0
I1
I2
I3
I4
tp9905
I0
tp9906
a((I0
I1
I2
I3
tp9907
I0
tp9908
a((I0
I1
I2
I3
I4
I5
tp9909
I0
tp9910
a((I0
I1
I2
tp9911
I2
tp9912
a((I0
I1
I2
I3
I5
tp9913
I0
tp9914
a((I0
I1
I2
tp9915
I0
tp9916
a((I0
I1
I2
I3
tp9917
I0
tp9918
a((I0
I1
I2
I4
tp9919
I0
tp9920
a((I0
I1
I2
I3
I4
I5
tp9921
I0
tp9922
a((I0
I1
I2
I3
tp9923
I0
tp9924
a((I0
I1
I2
tp9925
I0
tp9926
a((I0
I1
I2
I3
I4
tp9927
I0
tp9928
a((I0
I1
I2
I3
I4
tp9929
I0
tp9930
a((I0
I1
I2
tp9931
I0
tp9932
a((I0
I1
I2
I3
tp9933
I0
tp9934
a((I0
I1
I2
I3
I4
I5
tp9935
I0
tp9936
a((I0
I1
I2
I4
tp9937
I0
tp9938
a((I0
I1
I2
I3
tp9939
I0
tp9940
a((I0
I1
I2
I3
tp9941
I0
tp9942
a((I0
I1
I2
I3
I4
tp9943
I0
tp9944
a((I0
I1
I2
I3
I4
tp9945
I0
tp9946
a((I0
I1
I2
I4
tp9947
I1
tp9948
a((I0
I1
I2
I4
tp9949
I0
tp9950
a((I0
I1
I2
I3
I4
tp9951
I0
tp9952
a((I0
I1
I2
I4
tp9953
I0
tp9954
a((I0
I1
I2
tp9955
I0
tp9956
a((I0
I1
I2
tp9957
I0
tp9958
a((I0
I1
I2
I3
I4
I5
tp9959
I2
tp9960
a((I0
I1
I2
I3
I5
tp9961
I0
tp9962
a((I0
I1
I2
tp9963
I1
tp9964
a((I0
I1
I2
I3
tp9965
I0
tp9966
a((I0
I1
I2
I3
tp9967
I0
tp9968
a((I0
I1
I2
I3
I4
I5
tp9969
I0
tp9970
a((I0
I1
I2
tp9971
I0
tp9972
a((I0
I1
I2
tp9973
I0
tp9974
a((I0
I1
I2
tp9975
I0
tp9976
a((I0
I1
I2
I3
tp9977
I0
tp9978
a((I0
I1
I2
I3
I4
I5
tp9979
I0
tp9980
a((I0
I1
I2
tp9981
I1
tp9982
a((I0
I1
I2
I3
I4
tp9983
I0
tp9984
a((I0
I1
I2
I4
I5
tp9985
I2
tp9986
a((I0
I1
I2
I3
I4
tp9987
I0
tp9988
a((I0
I1
I2
tp9989
I0
tp9990
a((I0
I1
I2
tp9991
I0
tp9992
a((I0
I1
I2
tp9993
I0
tp9994
a((I0
I1
I2
I5
tp9995
I2
tp9996
a((I0
I1
I2
I3
tp9997
I1
tp9998
a((I0
I1
I2
I3
tp9999
I1
tp10000
a((I0
I1
I2
I3
I4
I5
tp10001
I0
tp10002
a((I0
I1
I2
I3
tp10003
I0
tp10004
a((I0
I1
I2
I3
tp10005
I0
tp10006
a((I0
I1
I2
tp10007
I0
tp10008
a((I0
I1
I2
I3
tp10009
I1
tp10010
a((I0
I1
I2
tp10011
I0
tp10012
a((I0
I1
I2
I3
tp10013
I0
tp10014
a((I0
I1
I2
I3
I4
I5
tp10015
I0
tp10016
a((I0
I1
I2
I3
tp10017
I0
tp10018
a((I0
I1
I2
I3
I5
tp10019
I0
tp10020
a((I0
I1
I2
I3
I4
tp10021
I0
tp10022
a((I0
I1
I2
tp10023
I0
tp10024
a((I0
I1
I2
I3
I5
tp10025
I2
tp10026
a((I0
I1
I2
I3
I5
tp10027
I0
tp10028
a((I0
I1
I2
tp10029
I0
tp10030
a((I0
I1
I2
I3
I4
I5
tp10031
I0
tp10032
a((I0
I1
I2
I3
I4
I5
tp10033
I0
tp10034
a((I0
I1
I2
I3
I4
I5
tp10035
I0
tp10036
a((I0
I1
I2
I3
I4
I5
tp10037
I0
tp10038
a((I0
I1
I2
I3
I5
tp10039
I0
tp10040
a((I0
I1
I2
tp10041
I1
tp10042
a((I0
I1
I2
I3
tp10043
I0
tp10044
a((I0
I1
I2
I3
I4
I5
tp10045
I0
tp10046
a((I0
I1
I2
I3
I5
tp10047
I4
tp10048
a((I0
I1
I2
tp10049
I0
tp10050
a((I0
I1
I2
I3
tp10051
I1
tp10052
a((I0
I1
I2
tp10053
I0
tp10054
a((I0
I1
I2
I3
I5
tp10055
I0
tp10056
a((I0
I1
I2
I3
I4
I5
tp10057
I0
tp10058
a.